 lwip_image

 Timestamp is 569c8da9 (Mon Jan 18 08:00:57 2016)

 Preferred load address is 0000000180000000

 Start         Length     Name                   Class
 0001:00000000 000001b3H .text$di                CODE
 0001:000001c0 0002a44cH .text$mn                CODE
 0001:0002a610 00001ff7H .text$x                 CODE
 0001:0002c610 000000c3H .text$yd                CODE
 0002:00000000 00000298H .idata$5                DATA
 0002:00000298 00000008H .CRT$XCA                DATA
 0002:000002a0 000000e0H .CRT$XCU                DATA
 0002:00000380 00000008H .CRT$XCZ                DATA
 0002:00000388 00000008H .CRT$XIA                DATA
 0002:00000390 00000028H .CRT$XIC                DATA
 0002:000003b8 00000008H .CRT$XIZ                DATA
 0002:000003c0 00000008H .CRT$XPA                DATA
 0002:000003c8 00000010H .CRT$XPX                DATA
 0002:000003d8 00000008H .CRT$XPXA               DATA
 0002:000003e0 00000008H .CRT$XPZ                DATA
 0002:000003e8 00000008H .CRT$XTA                DATA
 0002:000003f0 00000008H .CRT$XTZ                DATA
 0002:00000400 0001acb0H .rdata                  DATA
 0002:0001b0b0 00000074H .rdata$debug            DATA
 0002:0001b128 0000037cH .rdata$r                DATA
 0002:0001b4a8 00000008H .rtc$IAA                DATA
 0002:0001b4b0 00000008H .rtc$IZZ                DATA
 0002:0001b4b8 00000008H .rtc$TAA                DATA
 0002:0001b4c0 00000008H .rtc$TZZ                DATA
 0002:0001b4d0 000037f0H .xdata                  DATA
 0002:0001ecc0 00000364H .xdata$x                DATA
 0002:0001f024 00000020H .didat$2                DATA
 0002:0001f044 00000020H .didat$3                DATA
 0002:0001f068 000001c0H .didat$4                DATA
 0002:0001f228 00000e30H .didat$6                DATA
 0002:00020058 000001c0H .didat$7                DATA
 0002:00020220 00000058H .edata                  DATA
 0002:00020278 00000028H .idata$2                DATA
 0002:000202a0 00000014H .idata$3                DATA
 0002:000202b8 00000298H .idata$4                DATA
 0002:00020550 000005f8H .idata$6                DATA
 0003:00000000 000019c0H .data                   DATA
 0003:000019c0 00000221H .data$r                 DATA
 0003:00001be8 000001c0H .didat$5                DATA
 0003:00001dc0 00002700H .bss                    DATA
 0004:00000000 00001b84H .pdata                  DATA
 0005:00000000 00000058H .rsrc$01                DATA
 0005:00000060 00000180H .rsrc$02                DATA

  Address         Publics by Value              Rva+Base               Lib:Object

 0000:00000000       ___safe_se_handler_count   0000000000000000     <absolute>
 0000:00000000       __guard_fids_count         0000000000000000     <absolute>
 0000:00000000       ___safe_se_handler_table   0000000000000000     <absolute>
 0000:00000000       __guard_fids_table         0000000000000000     <absolute>
 0000:00000000       __guard_flags              0000000000000000     <absolute>
 0000:00000000       __ImageBase                0000000180000000     <linker-defined>
 0001:000001c0       ?InitAll@@YAXV?$Local@VObject@v8@@@v8@@@Z 00000001800011c0 f   init.obj
 0001:000001e0       ??1?$basic_string@DU?$char_traits@D@std@@V?$allocator@D@2@@std@@QEAA@XZ 00000001800011e0 f i init.obj
 0001:00000220       ??1?$CImg@D@cimg_library@@QEAA@XZ 0000000180001220 f i init.obj
 0001:00000220       ??1?$CImg@I@cimg_library@@QEAA@XZ 0000000180001220 f i resize_worker.obj
 0001:00000220       ??1?$CImg@K@cimg_library@@QEAA@XZ 0000000180001220 f i resize_worker.obj
 0001:00000220       ??1?$CImg@M@cimg_library@@QEAA@XZ 0000000180001220 f i resize_worker.obj
 0001:00000220       ??1?$CImg@E@cimg_library@@QEAA@XZ 0000000180001220 f i image.obj
 0001:00000230       ?assign@?$basic_string@DU?$char_traits@D@std@@V?$allocator@D@2@@std@@QEAAAEAV12@AEBV12@_K1@Z 0000000180001230 f i init.obj
 0001:00000360       ?assign@?$basic_string@DU?$char_traits@D@std@@V?$allocator@D@2@@std@@QEAAAEAV12@PEBD_K@Z 0000000180001360 f i init.obj
 0001:000004a0       ?erase@?$basic_string@DU?$char_traits@D@std@@V?$allocator@D@2@@std@@QEAAAEAV12@_K0@Z 00000001800014a0 f i init.obj
 0001:00000570       ?_Copy@?$basic_string@DU?$char_traits@D@std@@V?$allocator@D@2@@std@@QEAAX_K0@Z 0000000180001570 f i init.obj
 0001:00000660       ??0exception@stdext@@QEAA@AEBV01@@Z 0000000180001660 f i image.obj
 0001:00000680       ??1exception@stdext@@UEAA@XZ 0000000180001680 f i image.obj
 0001:00000690       ?what@exception@stdext@@UEBAPEBDXZ 0000000180001690 f i image.obj
 0001:000006b0       ?_Doraise@exception@stdext@@MEBAXXZ 00000001800016b0 f i image.obj
 0001:000006b0       ??1?$Persistent@VObject@v8@@V?$NonCopyablePersistentTraits@VObject@v8@@@2@@v8@@QEAA@XZ 00000001800016b0 f i image.obj
 0001:000006b0       ??1?$Persistent@VObject@v8@@V?$NonCopyablePersistentTraits@VObject@v8@@@2@@Nan@@QEAA@XZ 00000001800016b0 f i image.obj
 0001:000006c0       ??_Eexception@stdext@@UEAAPEAXI@Z 00000001800016c0 f i * CIL library *:* CIL module *
 0001:000006c0       ??_Gexception@stdext@@UEAAPEAXI@Z 00000001800016c0 f i image.obj
 0001:000006f0       ??1ObjectWrap@node@@UEAA@XZ 00000001800016f0 f i image.obj
 0001:00000770       ?Wrap@ObjectWrap@node@@IEAAXV?$Local@VObject@v8@@@v8@@@Z 0000000180001770 f i image.obj
 0001:00000840       ?Ref@ObjectWrap@node@@MEAAXXZ 0000000180001840 f i image.obj
 0001:00000880       ?Unref@ObjectWrap@node@@MEAAXXZ 0000000180001880 f i image.obj
 0001:00000930       ?WeakCallback@ObjectWrap@node@@CAXAEBV?$WeakCallbackData@VObject@v8@@VObjectWrap@node@@@v8@@@Z 0000000180001930 f i image.obj
 0001:00000a50       ??_EObjectWrap@node@@UEAAPEAXI@Z 0000000180001a50 f i * CIL library *:* CIL module *
 0001:00000a50       ??_GObjectWrap@node@@UEAAPEAXI@Z 0000000180001a50 f i image.obj
 0001:00000b30       ?New@?$Factory@VFunctionTemplate@v8@@@imp@Nan@@SA?AV?$Local@VFunctionTemplate@v8@@@v8@@P6AXAEBV?$FunctionCallbackInfo@VValue@v8@@@3@@ZV?$Local@VValue@v8@@@5@V?$Local@VSignature@v8@@@5@@Z 0000000180001b30 f i image.obj
 0001:00000cc0       ??1EscapableHandleScope@Nan@@QEAA@XZ 0000000180001cc0 f i image.obj
 0001:00000cc0       ??1HandleScope@Nan@@QEAA@XZ 0000000180001cc0 f i image.obj
 0001:00000cd0       ??0Callback@Nan@@QEAA@AEBV?$Local@VFunction@v8@@@v8@@@Z 0000000180001cd0 f i image.obj
 0001:00000df0       ?AsyncExecute@Nan@@YAXPEAUuv_work_s@@@Z 0000000180001df0 f i image.obj
 0001:00000e00       ?AsyncExecuteComplete@Nan@@YAXPEAUuv_work_s@@@Z 0000000180001e00 f i image.obj
 0001:00000e30       ?_snprintf@cimg@cimg_library@@YAHQEAD_KQEBDZZ 0000000180001e30 f i image.obj
 0001:00000e50       ?_vsnprintf@cimg@cimg_library@@YAHQEAD_KQEBDPEAD@Z 0000000180001e50 f i image.obj
 0001:00000ed0       ??0CImgException@cimg_library@@QEAA@AEBU01@@Z 0000000180001ed0 f i image.obj
 0001:00000f40       ??1CImgIOException@cimg_library@@UEAA@XZ 0000000180001f40 f i image.obj
 0001:00000f40       ??1CImgException@cimg_library@@UEAA@XZ 0000000180001f40 f i image.obj
 0001:00000f40       ??1CImgInstanceException@cimg_library@@UEAA@XZ 0000000180001f40 f i image.obj
 0001:00000f40       ??1CImgArgumentException@cimg_library@@UEAA@XZ 0000000180001f40 f i image.obj
 0001:00000f70       ?what@CImgException@cimg_library@@UEBAPEBDXZ 0000000180001f70 f i image.obj
 0001:00000f80       ??_GCImgInstanceException@cimg_library@@UEAAPEAXI@Z 0000000180001f80 f i image.obj
 0001:00000f80       ??_ECImgException@cimg_library@@UEAAPEAXI@Z 0000000180001f80 f i * CIL library *:* CIL module *
 0001:00000f80       ??_GCImgArgumentException@cimg_library@@UEAAPEAXI@Z 0000000180001f80 f i image.obj
 0001:00000f80       ??_ECImgInstanceException@cimg_library@@UEAAPEAXI@Z 0000000180001f80 f i * CIL library *:* CIL module *
 0001:00000f80       ??_GCImgIOException@cimg_library@@UEAAPEAXI@Z 0000000180001f80 f i image.obj
 0001:00000f80       ??_GCImgException@cimg_library@@UEAAPEAXI@Z 0000000180001f80 f i image.obj
 0001:00000f80       ??_ECImgArgumentException@cimg_library@@UEAAPEAXI@Z 0000000180001f80 f i * CIL library *:* CIL module *
 0001:00000f80       ??_ECImgIOException@cimg_library@@UEAAPEAXI@Z 0000000180001f80 f i * CIL library *:* CIL module *
 0001:00000fd0       ??0CImgArgumentException@cimg_library@@QEAA@QEBDZZ 0000000180001fd0 f i image.obj
 0001:00001110       ??0CImgInstanceException@cimg_library@@QEAA@QEBDZZ 0000000180002110 f i image.obj
 0001:00001250       ??0CImgIOException@cimg_library@@QEAA@QEBDZZ 0000000180002250 f i image.obj
 0001:00001390       ?Mutex_attr@cimg@cimg_library@@YAAEAUMutex_info@12@XZ 0000000180002390 f i image.obj
 0001:00001400       ?warn@cimg@cimg_library@@YAXQEBDZZ 0000000180002400 f i image.obj
 0001:000014f0       ?filenamerand@cimg@cimg_library@@YAPEBDXZ 00000001800024f0 f i image.obj
 0001:00001680       ?winformat_string@cimg@cimg_library@@YAXQEAD@Z 0000000180002680 f i image.obj
 0001:000016f0       ??0CImgInstanceException@cimg_library@@QEAA@AEBU01@@Z 00000001800026f0 f i image.obj
 0001:000016f0       ??0CImgIOException@cimg_library@@QEAA@AEBU01@@Z 00000001800026f0 f i image.obj
 0001:000016f0       ??0CImgArgumentException@cimg_library@@QEAA@AEBU01@@Z 00000001800026f0 f i image.obj
 0001:00001770       ?fclose@cimg@cimg_library@@YAHPEAU_iobuf@@@Z 0000000180002770 f i image.obj
 0001:000017d0       ?info@cimg@cimg_library@@YAXXZ 00000001800027d0 f i image.obj
 0001:000020e0       ?temporary_path@cimg@cimg_library@@YAPEBDQEBD_N@Z 00000001800030e0 f i image.obj
 0001:00002600       ?programfiles_path@cimg@cimg_library@@YAPEBDQEBD_N@Z 0000000180003600 f i image.obj
 0001:000026f0       ?imagemagick_path@cimg@cimg_library@@YAPEBDQEBD_N@Z 00000001800036f0 f i image.obj
 0001:00003160       ?graphicsmagick_path@cimg@cimg_library@@YAPEBDQEBD_N@Z 0000000180004160 f i image.obj
 0001:00003bc0       ?medcon_path@cimg@cimg_library@@YAPEBDQEBD_N@Z 0000000180004bc0 f i image.obj
 0001:00003d90       ?strbuffersize@cimg@cimg_library@@YAPEBDK@Z 0000000180004d90 f i image.obj
 0001:00003eb0       ?Init@LwipImage@@SAXV?$Local@VObject@v8@@@v8@@@Z 0000000180004eb0 f   image.obj
 0001:00004df0       ??0LwipImage@@QEAA@PEAE_K1@Z 0000000180005df0 f   image.obj
 0001:00004e80       ??_ELwipImage@@UEAAPEAXI@Z 0000000180005e80 f i * CIL library *:* CIL module *
 0001:00004e80       ??_GLwipImage@@UEAAPEAXI@Z 0000000180005e80 f i image.obj
 0001:00004f00       ?New@LwipImage@@SAXAEBV?$FunctionCallbackInfo@VValue@v8@@@Nan@@@Z 0000000180005f00 f   image.obj
 0001:00005070       ?width@LwipImage@@SAXAEBV?$FunctionCallbackInfo@VValue@v8@@@Nan@@@Z 0000000180006070 f   image.obj
 0001:00005100       ?height@LwipImage@@SAXAEBV?$FunctionCallbackInfo@VValue@v8@@@Nan@@@Z 0000000180006100 f   image.obj
 0001:000051a0       ?getPixel@LwipImage@@SAXAEBV?$FunctionCallbackInfo@VValue@v8@@@Nan@@@Z 00000001800061a0 f   image.obj
 0001:000054b0       ?buffer@LwipImage@@SAXAEBV?$FunctionCallbackInfo@VValue@v8@@@Nan@@@Z 00000001800064b0 f   image.obj
 0001:00005590       ?resize@LwipImage@@SAXAEBV?$FunctionCallbackInfo@VValue@v8@@@Nan@@@Z 0000000180006590 f   image.obj
 0001:00005730       ?rotate@LwipImage@@SAXAEBV?$FunctionCallbackInfo@VValue@v8@@@Nan@@@Z 0000000180006730 f   image.obj
 0001:00005940       ?blur@LwipImage@@SAXAEBV?$FunctionCallbackInfo@VValue@v8@@@Nan@@@Z 0000000180006940 f   image.obj
 0001:00005a80       ?crop@LwipImage@@SAXAEBV?$FunctionCallbackInfo@VValue@v8@@@Nan@@@Z 0000000180006a80 f   image.obj
 0001:00005ce0       ?mirror@LwipImage@@SAXAEBV?$FunctionCallbackInfo@VValue@v8@@@Nan@@@Z 0000000180006ce0 f   image.obj
 0001:00005e50       ?pad@LwipImage@@SAXAEBV?$FunctionCallbackInfo@VValue@v8@@@Nan@@@Z 0000000180006e50 f   image.obj
 0001:00006180       ?sharpen@LwipImage@@SAXAEBV?$FunctionCallbackInfo@VValue@v8@@@Nan@@@Z 0000000180007180 f   image.obj
 0001:000062c0       ?hslaAdj@LwipImage@@SAXAEBV?$FunctionCallbackInfo@VValue@v8@@@Nan@@@Z 00000001800072c0 f   image.obj
 0001:000064d0       ?opacify@LwipImage@@SAXAEBV?$FunctionCallbackInfo@VValue@v8@@@Nan@@@Z 00000001800074d0 f   image.obj
 0001:000065e0       ?paste@LwipImage@@SAXAEBV?$FunctionCallbackInfo@VValue@v8@@@Nan@@@Z 00000001800075e0 f   image.obj
 0001:00006840       ?setPixel@LwipImage@@SAXAEBV?$FunctionCallbackInfo@VValue@v8@@@Nan@@@Z 0000000180007840 f   image.obj
 0001:00006ad0       ??0?$CImg@D@cimg_library@@QEAA@IIII@Z 0000000180007ad0 f i image.obj
 0001:00006b40       ?assign@?$CImg@D@cimg_library@@QEAAAEAU12@IIII@Z 0000000180007b40 f i image.obj
 0001:00006c60       ??0?$CImg@E@cimg_library@@QEAA@QEBEIIII_N@Z 0000000180007c60 f i image.obj
 0001:00006d00       ??0?$CImg@E@cimg_library@@QEAA@IIII@Z 0000000180007d00 f i image.obj
 0001:00006d80       ??0?$CImg@E@cimg_library@@QEAA@AEBU01@@Z 0000000180007d80 f i image.obj
 0001:00006e30       ??$Unwrap@VLwipImage@@@ObjectWrap@node@@SAPEAVLwipImage@@V?$Local@VObject@v8@@@v8@@@Z 0000000180007e30 f i image.obj
 0001:00006eb0       ?Call_@Callback@Nan@@AEBA?AV?$Local@VValue@v8@@@v8@@PEAVIsolate@4@V?$Local@VObject@v8@@@4@HQEAV34@@Z 0000000180007eb0 f i resize_worker.obj
 0001:00006f80       ??0AsyncWorker@Nan@@QEAA@PEAVCallback@1@@Z 0000000180007f80 f i resize_worker.obj
 0001:00007050       ??1AsyncWorker@Nan@@UEAA@XZ 0000000180008050 f i resize_worker.obj
 0001:00007110       ?WorkComplete@AsyncWorker@Nan@@UEAAXXZ 0000000180008110 f i resize_worker.obj
 0001:000071b0       ?Destroy@AsyncWorker@Nan@@UEAAXXZ 00000001800081b0 f i resize_worker.obj
 0001:000071d0       ?HandleOKCallback@AsyncWorker@Nan@@MEAAXXZ 00000001800081d0 f i resize_worker.obj
 0001:00007230       ?HandleErrorCallback@AsyncWorker@Nan@@MEAAXXZ 0000000180008230 f i resize_worker.obj
 0001:00007310       ?SetErrorMessage@AsyncWorker@Nan@@IEAAXPEBD@Z 0000000180008310 f i resize_worker.obj
 0001:00007380       ??_EAsyncWorker@Nan@@UEAAPEAXI@Z 0000000180008380 f i * CIL library *:* CIL module *
 0001:00007380       ??_GAsyncWorker@Nan@@UEAAPEAXI@Z 0000000180008380 f i resize_worker.obj
 0001:000073b0       ??_EResizeWorker@@UEAAPEAXI@Z 00000001800083b0 f i * CIL library *:* CIL module *
 0001:000073b0       ??_GResizeWorker@@UEAAPEAXI@Z 00000001800083b0 f i resize_worker.obj
 0001:000073f0       ?Execute@ResizeWorker@@UEAAXXZ 00000001800083f0 f   resize_worker.obj
 0001:00007450       ?HandleOKCallback@ResizeWorker@@UEAAXXZ 0000000180008450 f   resize_worker.obj
 0001:00007450       ?HandleOKCallback@SetPixelWorker@@UEAAXXZ 0000000180008450 f   setpixel_worker.obj
 0001:00007450       ?HandleOKCallback@PasteWorker@@UEAAXXZ 0000000180008450 f   paste_worker.obj
 0001:00007450       ?HandleOKCallback@SharpenWorker@@UEAAXXZ 0000000180008450 f   sharpen_worker.obj
 0001:00007450       ?HandleOKCallback@HSLAWorker@@UEAAXXZ 0000000180008450 f   hsla_worker.obj
 0001:00007450       ?HandleOKCallback@OpacifyWorker@@UEAAXXZ 0000000180008450 f   opacify_worker.obj
 0001:00007450       ?HandleOKCallback@CropWorker@@UEAAXXZ 0000000180008450 f   crop_worker.obj
 0001:00007450       ?HandleOKCallback@PadWorker@@UEAAXXZ 0000000180008450 f   pad_worker.obj
 0001:00007450       ?HandleOKCallback@RotateWorker@@UEAAXXZ 0000000180008450 f   rotate_worker.obj
 0001:00007450       ?HandleOKCallback@BlurWorker@@UEAAXXZ 0000000180008450 f   blur_worker.obj
 0001:00007450       ?HandleOKCallback@MirrorWorker@@UEAAXXZ 0000000180008450 f   mirror_worker.obj
 0001:000074f0       ??0?$CImg@K@cimg_library@@QEAA@IIII@Z 00000001800084f0 f i resize_worker.obj
 0001:00007570       ?resize@?$CImg@E@cimg_library@@QEAAAEAU12@HHHHHIMMMM@Z 0000000180008570 f i resize_worker.obj
 0001:000077e0       ?assign@?$CImg@E@cimg_library@@QEAAAEAU12@XZ 00000001800087e0 f i resize_worker.obj
 0001:00007820       ?move_to@?$CImg@E@cimg_library@@QEAAAEAU12@AEAU12@@Z 0000000180008820 f i resize_worker.obj
 0001:000078e0       ?get_resize@?$CImg@E@cimg_library@@QEBA?AU12@HHHHHIMMMM@Z 00000001800088e0 f i resize_worker.obj
 0001:0000d9b0       ??0?$CImg@M@cimg_library@@QEAA@IIII@Z 000000018000e9b0 f i resize_worker.obj
 0001:0000da40       ??0?$CImg@M@cimg_library@@QEAA@IIIIAEBM@Z 000000018000ea40 f i resize_worker.obj
 0001:0000dae0       ??0?$CImg@E@cimg_library@@QEAA@IIIIAEBE@Z 000000018000eae0 f i resize_worker.obj
 0001:0000dba0       ?assign@?$CImg@E@cimg_library@@QEAAAEAU12@IIII@Z 000000018000eba0 f i resize_worker.obj
 0001:0000dcd0       ??H?$CImg@E@cimg_library@@QEBA?AU01@XZ 000000018000ecd0 f i resize_worker.obj
 0001:0000dd00       ?_cimg_lanczos@?$CImg@E@cimg_library@@SAMM@Z 000000018000ed00 f i resize_worker.obj
 0001:0000dda0       ?get_crop@?$CImg@E@cimg_library@@QEBA?AU12@HHHHHHHH_N@Z 000000018000eda0 f i resize_worker.obj
 0001:0000dff0       ?draw_image@?$CImg@E@cimg_library@@QEAAAEAU12@HHHHAEBU12@M@Z 000000018000eff0 f i resize_worker.obj
 0001:0000e6d0       ??0?$CImg@I@cimg_library@@QEAA@IIII@Z 000000018000f6d0 f i resize_worker.obj
 0001:0000e750       ?fill@?$CImg@M@cimg_library@@QEAAAEAU12@AEBM@Z 000000018000f750 f i resize_worker.obj
 0001:0000e860       ??0?$CImg@E@cimg_library@@QEAA@AEBU01@_N@Z 000000018000f860 f i resize_worker.obj
 0001:0000e900       ?assign@?$CImg@E@cimg_library@@QEAAAEAU12@QEBEIIII@Z 000000018000f900 f i resize_worker.obj
 0001:0000ea70       ?assign@?$CImg@E@cimg_library@@QEAAAEAU12@QEBEIIII_N@Z 000000018000fa70 f i resize_worker.obj
 0001:0000ebc0       ??$assign@M@?$CImg@E@cimg_library@@QEAAAEAU01@QEBMIIII@Z 000000018000fbc0 f i resize_worker.obj
 0001:0000ece0       ??_GRotateWorker@@UEAAPEAXI@Z 000000018000fce0 f i rotate_worker.obj
 0001:0000ece0       ??_ERotateWorker@@UEAAPEAXI@Z 000000018000fce0 f i * CIL library *:* CIL module *
 0001:0000ed20       ?Execute@RotateWorker@@UEAAXXZ 000000018000fd20 f   rotate_worker.obj
 0001:0000f0c0       ?fillC@?$CImg@E@cimg_library@@QEAAAEAU12@IIIHZZ 00000001800100c0 f i rotate_worker.obj
 0001:0000f160       ?get_rotate@?$CImg@E@cimg_library@@QEBA?AU12@MII@Z 0000000180010160 f i rotate_worker.obj
 0001:0000f4a0       ?_linear_atXY@?$CImg@E@cimg_library@@QEBAMMMHH@Z 00000001800104a0 f i rotate_worker.obj
 0001:0000f5d0       ??_EBlurWorker@@UEAAPEAXI@Z 00000001800105d0 f i * CIL library *:* CIL module *
 0001:0000f5d0       ??_GBlurWorker@@UEAAPEAXI@Z 00000001800105d0 f i blur_worker.obj
 0001:0000f610       ?Execute@BlurWorker@@UEAAXXZ 0000000180010610 f   blur_worker.obj
 0001:0000f660       ?vanvliet@?$CImg@E@cimg_library@@QEAAAEAU12@MID_N@Z 0000000180010660 f i blur_worker.obj
 0001:0000fa50       ?_cimg_recursive_apply@?$CImg@E@cimg_library@@SAXPEAEQEBNHKI_N@Z 0000000180010a50 f i blur_worker.obj
 0001:0000fe40       ??_GCropWorker@@UEAAPEAXI@Z 0000000180010e40 f i crop_worker.obj
 0001:0000fe40       ??_ECropWorker@@UEAAPEAXI@Z 0000000180010e40 f i * CIL library *:* CIL module *
 0001:0000fe80       ?Execute@CropWorker@@UEAAXXZ 0000000180010e80 f   crop_worker.obj
 0001:0000fed0       ?crop@?$CImg@E@cimg_library@@QEAAAEAU12@HHHHHHHH_N@Z 0000000180010ed0 f i crop_worker.obj
 0001:0000ff60       ??_EMirrorWorker@@UEAAPEAXI@Z 0000000180010f60 f i * CIL library *:* CIL module *
 0001:0000ff60       ??_GMirrorWorker@@UEAAPEAXI@Z 0000000180010f60 f i mirror_worker.obj
 0001:0000ffa0       ?Execute@MirrorWorker@@UEAAXXZ 0000000180010fa0 f   mirror_worker.obj
 0001:000100a0       ?append@?$basic_string@DU?$char_traits@D@std@@V?$allocator@D@2@@std@@QEAAAEAV12@AEBV12@_K1@Z 00000001800110a0 f i mirror_worker.obj
 0001:000101d0       ?append@?$basic_string@DU?$char_traits@D@std@@V?$allocator@D@2@@std@@QEAAAEAV12@PEBD_K@Z 00000001800111d0 f i mirror_worker.obj
 0001:00010320       ?mirror@?$CImg@E@cimg_library@@QEAAAEAU12@D@Z 0000000180011320 f i mirror_worker.obj
 0001:000106d0       ??_GPadWorker@@UEAAPEAXI@Z 00000001800116d0 f i pad_worker.obj
 0001:000106d0       ??_EPadWorker@@UEAAPEAXI@Z 00000001800116d0 f i * CIL library *:* CIL module *
 0001:00010710       ?Execute@PadWorker@@UEAAXXZ 0000000180011710 f   pad_worker.obj
 0001:00010ac0       ??_GSharpenWorker@@UEAAPEAXI@Z 0000000180011ac0 f i sharpen_worker.obj
 0001:00010ac0       ??_ESharpenWorker@@UEAAPEAXI@Z 0000000180011ac0 f i * CIL library *:* CIL module *
 0001:00010b00       ?Execute@SharpenWorker@@UEAAXXZ 0000000180011b00 f   sharpen_worker.obj
 0001:00010b30       ?sharpen@?$CImg@E@cimg_library@@QEAAAEAU12@M_NMMM@Z 0000000180011b30 f i sharpen_worker.obj
 0001:00011350       ?max@?$CImg@M@cimg_library@@QEAAAEAMXZ 0000000180012350 f i sharpen_worker.obj
 0001:000114b0       ??$?YE@?$CImg@M@cimg_library@@QEAAAEAU01@AEBU?$CImg@E@1@@Z 00000001800124b0 f i sharpen_worker.obj
 0001:00011750       ??_EHSLAWorker@@UEAAPEAXI@Z 0000000180012750 f i * CIL library *:* CIL module *
 0001:00011750       ??_GHSLAWorker@@UEAAPEAXI@Z 0000000180012750 f i hsla_worker.obj
 0001:00011790       ?Execute@HSLAWorker@@UEAAXXZ 0000000180012790 f   hsla_worker.obj
 0001:00011ac0       ?rgb_to_hsl@@YAXEEEPEAM00@Z 0000000180012ac0 f   hsla_worker.obj
 0001:00011c50       ?hsl_to_rgb@@YAXMMMPEAE00@Z 0000000180012c50 f   hsla_worker.obj
 0001:00011eb0       ??_EOpacifyWorker@@UEAAPEAXI@Z 0000000180012eb0 f i * CIL library *:* CIL module *
 0001:00011eb0       ??_GOpacifyWorker@@UEAAPEAXI@Z 0000000180012eb0 f i opacify_worker.obj
 0001:00011ef0       ?Execute@OpacifyWorker@@UEAAXXZ 0000000180012ef0 f   opacify_worker.obj
 0001:00011fe0       ??0PasteWorker@@QEAA@_K0AEAV?$Local@VObject@v8@@@v8@@00PEAU?$CImg@E@cimg_library@@PEAVCallback@Nan@@@Z 0000000180012fe0 f   paste_worker.obj
 0001:00012130       ??_EPasteWorker@@UEAAPEAXI@Z 0000000180013130 f i * CIL library *:* CIL module *
 0001:00012130       ??_GPasteWorker@@UEAAPEAXI@Z 0000000180013130 f i paste_worker.obj
 0001:00012170       ?Execute@PasteWorker@@UEAAXXZ 0000000180013170 f   paste_worker.obj
 0001:000124a0       ??_GSetPixelWorker@@UEAAPEAXI@Z 00000001800134a0 f i setpixel_worker.obj
 0001:000124a0       ??_ESetPixelWorker@@UEAAPEAXI@Z 00000001800134a0 f i * CIL library *:* CIL module *
 0001:000124e0       ?Execute@SetPixelWorker@@UEAAXXZ 00000001800134e0 f   setpixel_worker.obj
 0001:0001258c       __imp_load_node_module_register 000000018001358c f   node:node.exe
 0001:00012598       __tailMerge_node_exe       0000000180013598 f i node:node.exe
 0001:00012611       __imp_load_?Data@Buffer@node@@YAPEADV?$Local@VObject@v8@@@v8@@@Z 0000000180013611 f   node:node.exe
 0001:0001261d       __imp_load_?Copy@Buffer@node@@YA?AV?$MaybeLocal@VObject@v8@@@v8@@PEAVIsolate@4@PEBD_K@Z 000000018001361d f   node:node.exe
 0001:00012629       __imp_load_uv_default_loop 0000000180013629 f   node:node.exe
 0001:00012635       __imp_load_?New@Signature@v8@@SA?AV?$Local@VSignature@v8@@@2@PEAVIsolate@2@V?$Local@VFunctionTemplate@v8@@@2@@Z 0000000180013635 f   node:node.exe
 0001:00012641       __imp_load_?ToLocalEmpty@V8@v8@@CAXXZ 0000000180013641 f   node:node.exe
 0001:0001264d       __imp_load_?ClearWeak@V8@v8@@CAPEAXPEAPEAVObject@internal@2@@Z 000000018001364d f   node:node.exe
 0001:00012659       __imp_load_?MakeWeak@V8@v8@@CAXPEAPEAVObject@internal@2@PEAXP6AXAEBV?$WeakCallbackData@VValue@v8@@X@2@@Z@Z 0000000180013659 f   node:node.exe
 0001:00012665       __imp_load_?DisposeGlobal@V8@v8@@CAXPEAPEAVObject@internal@2@@Z 0000000180013665 f   node:node.exe
 0001:00012671       __imp_load_?GlobalizeReference@V8@v8@@CAPEAPEAVObject@internal@2@PEAVIsolate@42@PEAPEAV342@@Z 0000000180013671 f   node:node.exe
 0001:0001267d       __imp_load_?Escape@EscapableHandleScope@v8@@AEAAPEAPEAVObject@internal@2@PEAPEAV342@@Z 000000018001367d f   node:node.exe
 0001:00012689       __imp_load_??0EscapableHandleScope@v8@@QEAA@PEAVIsolate@1@@Z 0000000180013689 f   node:node.exe
 0001:00012695       __imp_load_?NumberValue@Value@v8@@QEBANXZ 0000000180013695 f   node:node.exe
 0001:000126a1       __imp_load_?BooleanValue@Value@v8@@QEBA_NXZ 00000001800136a1 f   node:node.exe
 0001:000126ad       __imp_load_?ToInt32@Value@v8@@QEBA?AV?$MaybeLocal@VInt32@v8@@@2@V?$Local@VContext@v8@@@2@@Z 00000001800136ad f   node:node.exe
 0001:000126b9       __imp_load_?SetClassName@FunctionTemplate@v8@@QEAAXV?$Local@VString@v8@@@2@@Z 00000001800136b9 f   node:node.exe
 0001:000126c5       __imp_load_?PrototypeTemplate@FunctionTemplate@v8@@QEAA?AV?$Local@VObjectTemplate@v8@@@2@XZ 00000001800136c5 f   node:node.exe
 0001:000126d1       __imp_load_?InstanceTemplate@FunctionTemplate@v8@@QEAA?AV?$Local@VObjectTemplate@v8@@@2@XZ 00000001800136d1 f   node:node.exe
 0001:000126dd       __imp_load_?GetFunction@FunctionTemplate@v8@@QEAA?AV?$Local@VFunction@v8@@@2@XZ 00000001800136dd f   node:node.exe
 0001:000126e9       __imp_load_?GetFunction@FunctionTemplate@v8@@QEAA?AV?$MaybeLocal@VFunction@v8@@@2@V?$Local@VContext@v8@@@2@@Z 00000001800136e9 f   node:node.exe
 0001:000126f5       __imp_load_?New@FunctionTemplate@v8@@SA?AV?$Local@VFunctionTemplate@v8@@@2@PEAVIsolate@2@P6AXAEBV?$FunctionCallbackInfo@VValue@v8@@@2@@ZV?$Local@VValue@v8@@@2@V?$Local@VSignature@v8@@@2@H@Z 00000001800136f5 f   node:node.exe
 0001:00012701       __imp_load_?NewFromUtf8@String@v8@@SA?AV?$MaybeLocal@VString@v8@@@2@PEAVIsolate@2@PEBDW4NewStringType@2@H@Z 0000000180013701 f   node:node.exe
 0001:0001270d       __imp_load_?New@Array@v8@@SA?AV?$Local@VArray@v8@@@2@PEAVIsolate@2@H@Z 000000018001370d f   node:node.exe
 0001:00012719       __imp_load_?CreateHandle@HandleScope@v8@@KAPEAPEAVObject@internal@2@PEAVIsolate@42@PEAV342@@Z 0000000180013719 f   node:node.exe
 0001:00012725       __imp_load_?CreateHandle@HandleScope@v8@@CAPEAPEAVObject@internal@2@PEAVHeapObject@42@PEAV342@@Z 0000000180013725 f   node:node.exe
 0001:00012731       __imp_load_??1HandleScope@v8@@QEAA@XZ 0000000180013731 f   node:node.exe
 0001:0001273d       __imp_load_??0HandleScope@v8@@QEAA@PEAVIsolate@1@@Z 000000018001373d f   node:node.exe
 0001:00012749       __imp_load_?New@Number@v8@@SA?AV?$Local@VNumber@v8@@@2@PEAVIsolate@2@N@Z 0000000180013749 f   node:node.exe
 0001:00012755       __imp_load_?Value@Number@v8@@QEBANXZ 0000000180013755 f   node:node.exe
 0001:00012761       __imp_load_?SlowGetAlignedPointerFromInternalField@Object@v8@@AEAAPEAXH@Z 0000000180013761 f   node:node.exe
 0001:0001276d       __imp_load_?SlowGetInternalField@Object@v8@@AEAA?AV?$Local@VValue@v8@@@2@H@Z 000000018001376d f   node:node.exe
 0001:00012779       __imp_load_?New@Object@v8@@SA?AV?$Local@VObject@v8@@@2@PEAVIsolate@2@@Z 0000000180013779 f   node:node.exe
 0001:00012785       __imp_load_?SetAlignedPointerInInternalField@Object@v8@@QEAAXHPEAX@Z 0000000180013785 f   node:node.exe
 0001:00012791       __imp_load_?SetInternalField@Object@v8@@QEAAXHV?$Local@VValue@v8@@@2@@Z 0000000180013791 f   node:node.exe
 0001:0001279d       __imp_load_?InternalFieldCount@Object@v8@@QEAAHXZ 000000018001379d f   node:node.exe
 0001:000127a9       __imp_load_?Set@Object@v8@@QEAA_NV?$Local@VValue@v8@@@2@0@Z 00000001800137a9 f   node:node.exe
 0001:000127b5       __imp_load_?Set@Object@v8@@QEAA_NIV?$Local@VValue@v8@@@2@@Z 00000001800137b5 f   node:node.exe
 0001:000127c1       __imp_load_?Set@Object@v8@@QEAA?AV?$Maybe@_N@2@V?$Local@VContext@v8@@@2@IV?$Local@VValue@v8@@@2@@Z 00000001800137c1 f   node:node.exe
 0001:000127cd       __imp_load_?Set@Template@v8@@QEAAXV?$Local@VName@v8@@@2@V?$Local@VData@v8@@@2@W4PropertyAttribute@2@@Z 00000001800137cd f   node:node.exe
 0001:000127d9       __imp_load_?SetInternalFieldCount@ObjectTemplate@v8@@QEAAXH@Z 00000001800137d9 f   node:node.exe
 0001:000127e5       __imp_load_?NewInstance@ObjectTemplate@v8@@QEAA?AV?$MaybeLocal@VObject@v8@@@2@V?$Local@VContext@v8@@@2@@Z 00000001800137e5 f   node:node.exe
 0001:000127f1       __imp_load_?New@ObjectTemplate@v8@@SA?AV?$Local@VObjectTemplate@v8@@@2@PEAVIsolate@2@V?$Local@VFunctionTemplate@v8@@@2@@Z 00000001800137f1 f   node:node.exe
 0001:000127fd       __imp_load_?Value@Integer@v8@@QEBA_JXZ 00000001800137fd f   node:node.exe
 0001:00012809       __imp_load_?New@Integer@v8@@SA?AV?$Local@VInteger@v8@@@2@PEAVIsolate@2@H@Z 0000000180013809 f   node:node.exe
 0001:00012815       __imp_load_?SetName@Function@v8@@QEAAXV?$Local@VString@v8@@@2@@Z 0000000180013815 f   node:node.exe
 0001:00012821       __imp_load_?GetCurrentContext@Isolate@v8@@QEAA?AV?$Local@VContext@v8@@@2@XZ 0000000180013821 f   node:node.exe
 0001:0001282d       __imp_load_?GetCurrent@Isolate@v8@@SAPEAV12@XZ 000000018001382d f   node:node.exe
 0001:00012839       __imp_load_?Value@External@v8@@QEBAPEAXXZ 0000000180013839 f   node:node.exe
 0001:00012845       __imp_load_?New@External@v8@@SA?AV?$Local@VExternal@v8@@@2@PEAVIsolate@2@PEAX@Z 0000000180013845 f   node:node.exe
 0001:00012851       __imp_load_uv_queue_work   0000000180013851 f   node:node.exe
 0001:0001285d       __imp_load_??1EscapableHandleScope@v8@@QEAA@XZ 000000018001385d f   node:node.exe
 0001:00012869       __imp_load_?MakeCallback@node@@YA?AV?$Local@VValue@v8@@@v8@@PEAVIsolate@3@V?$Local@VObject@v8@@@3@V?$Local@VFunction@v8@@@3@HPEAV23@@Z 0000000180013869 f   node:node.exe
 0001:00012875       __imp_load_?Global@Context@v8@@QEAA?AV?$Local@VObject@v8@@@2@XZ 0000000180013875 f   node:node.exe
 0001:00012881       __imp_load_?Error@Exception@v8@@SA?AV?$Local@VValue@v8@@@2@V?$Local@VString@v8@@@2@@Z 0000000180013881 f   node:node.exe
 0001:0001288d       __imp_load_?Get@Object@v8@@QEAA?AV?$Local@VValue@v8@@@2@I@Z 000000018001388d f   node:node.exe
 0001:0001289c       ??0bad_alloc@std@@QEAA@AEBV01@@Z 000000018001389c f i libcpmt:xthrow.obj
 0001:000128c0       ??0length_error@std@@QEAA@AEBV01@@Z 00000001800138c0 f i libcpmt:xthrow.obj
 0001:000128e4       ??0logic_error@std@@QEAA@AEBV01@@Z 00000001800138e4 f i libcpmt:xthrow.obj
 0001:00012908       ??0out_of_range@std@@QEAA@AEBV01@@Z 0000000180013908 f i libcpmt:xthrow.obj
 0001:0001292c       ??1bad_alloc@std@@UEAA@XZ  000000018001392c f i libcpmt:xthrow.obj
 0001:0001293c       ??1length_error@std@@UEAA@XZ 000000018001393c f i libcpmt:xthrow.obj
 0001:0001293c       ??1out_of_range@std@@UEAA@XZ 000000018001393c f i libcpmt:xthrow.obj
 0001:00012944       ??_Gbad_alloc@std@@UEAAPEAXI@Z 0000000180013944 f i libcpmt:xthrow.obj
 0001:00012944       ??_Ebad_alloc@std@@UEAAPEAXI@Z 0000000180013944 f i libcpmt:xthrow.obj
 0001:00012980       ??_Gout_of_range@std@@UEAAPEAXI@Z 0000000180013980 f i libcpmt:xthrow.obj
 0001:00012980       ??_Glogic_error@std@@UEAAPEAXI@Z 0000000180013980 f i libcpmt:xthrow.obj
 0001:00012980       ??_Elogic_error@std@@UEAAPEAXI@Z 0000000180013980 f i libcpmt:xthrow.obj
 0001:00012980       ??_Eout_of_range@std@@UEAAPEAXI@Z 0000000180013980 f i libcpmt:xthrow.obj
 0001:00012980       ??_Glength_error@std@@UEAAPEAXI@Z 0000000180013980 f i libcpmt:xthrow.obj
 0001:00012980       ??_Elength_error@std@@UEAAPEAXI@Z 0000000180013980 f i libcpmt:xthrow.obj
 0001:000129b0       ?_Xbad_alloc@std@@YAXXZ    00000001800139b0 f   libcpmt:xthrow.obj
 0001:000129f4       ?_Xlength_error@std@@YAXPEBD@Z 00000001800139f4 f   libcpmt:xthrow.obj
 0001:00012a2c       ?_Xout_of_range@std@@YAXPEBD@Z 0000000180013a2c f   libcpmt:xthrow.obj
 0001:00012a64       ??_U@YAPEAX_K@Z            0000000180013a64 f   libcpmt:newaop.obj
 0001:00012a80       __security_check_cookie    0000000180013a80 f   LIBCMT:amdsecgs.obj
 0001:00012ab0       memmove                    0000000180013ab0 f   LIBCMT:memcpy.obj
 0001:00012ab0       memcpy                     0000000180013ab0 f   LIBCMT:memcpy.obj
 0001:00013018       __onexitinit               0000000180014018 f   LIBCMT:onexit.obj
 0001:0001305c       _onexit                    000000018001405c f   LIBCMT:onexit.obj
 0001:00013168       atexit                     0000000180014168 f   LIBCMT:onexit.obj
 0001:00013180       ??_V@YAXPEAX@Z             0000000180014180 f   LIBCMT:delete2.obj
 0001:00013188       _purecall                  0000000180014188 f   LIBCMT:purevirt.obj
 0001:000131b4       ??3@YAXPEAX@Z              00000001800141b4 f   LIBCMT:delete.obj
 0001:000131bc       ??2@YAPEAX_K@Z             00000001800141bc f   LIBCMT:new.obj
 0001:00013228       _vsnprintf_helper          0000000180014228 f   LIBCMT:vsnprnc.obj
 0001:00013310       _vsnprintf_s               0000000180014310 f   LIBCMT:vsnprnc.obj
 0001:00013330       _vsnprintf_s_l             0000000180014330 f   LIBCMT:vsnprnc.obj
 0001:00013478       __initstdio                0000000180014478 f   LIBCMT:_file.obj
 0001:00013510       __endstdio                 0000000180014510 f   LIBCMT:_file.obj
 0001:00013540       __iob_func                 0000000180014540 f   LIBCMT:_file.obj
 0001:00013548       _lock_file                 0000000180014548 f   LIBCMT:_file.obj
 0001:000135b0       _lock_file2                00000001800145b0 f   LIBCMT:_file.obj
 0001:000135e4       _unlock_file               00000001800145e4 f   LIBCMT:_file.obj
 0001:00013634       _unlock_file2              0000000180014634 f   LIBCMT:_file.obj
 0001:00013654       _getpid                    0000000180014654 f   LIBCMT:getpid.obj
 0001:0001365c       remove                     000000018001465c f   LIBCMT:unlink.obj
 0001:000136a4       _wassert                   00000001800146a4 f   LIBCMT:wassert.obj
 0001:00014020       strncpy                    0000000180015020 f   LIBCMT:strncpy.obj
 0001:00014184       _fsopen                    0000000180015184 f   LIBCMT:fopen.obj
 0001:0001425c       fopen                      000000018001525c f   LIBCMT:fopen.obj
 0001:00014268       fprintf                    0000000180015268 f   LIBCMT:fprintf.obj
 0001:00014390       rand                       0000000180015390 f   LIBCMT:rand.obj
 0001:000143bc       srand                      00000001800153bc f   LIBCMT:rand.obj
 0001:000143d4       _vsnprintf                 00000001800153d4 f   LIBCMT:vsnprint.obj
 0001:000143ec       _vsnprintf_l               00000001800153ec f   LIBCMT:vsnprint.obj
 0001:000144b8       _getenv_helper_nolock      00000001800154b8 f   LIBCMT:getenv.obj
 0001:0001455c       getenv                     000000018001555c f   LIBCMT:getenv.obj
 0001:000145c8       ??8type_info@@QEBA_NAEBV0@@Z 00000001800155c8 f   LIBCMT:typinfo.obj
 0001:000145e8       ??_Gtype_info@@UEAAPEAXI@Z 00000001800155e8 f i LIBCMT:typinfo.obj
 0001:000145e8       ??_Etype_info@@UEAAPEAXI@Z 00000001800155e8 f i LIBCMT:typinfo.obj
 0001:00014624       _vscprintf                 0000000180015624 f   LIBCMT:vsprintf.obj
 0001:0001463c       _vscprintf_helper          000000018001563c f   LIBCMT:vsprintf.obj
 0001:000146cc       _fclose_nolock             00000001800156cc f   LIBCMT:fclose.obj
 0001:00014748       fclose                     0000000180015748 f   LIBCMT:fclose.obj
 0001:000147b0       ??0_LocaleUpdate@@QEAA@PEAUlocaleinfo_struct@@@Z 00000001800157b0 f i LIBCMT:stricmp.obj
 0001:00014858       __ascii_stricmp            0000000180015858 f   LIBCMT:stricmp.obj
 0001:00014894       _stricmp                   0000000180015894 f   LIBCMT:stricmp.obj
 0001:000148dc       _stricmp_l                 00000001800158dc f   LIBCMT:stricmp.obj
 0001:00014990       _CRT_INIT                  0000000180015990 f   LIBCMT:dllcrt0.obj
 0001:00014af0       _DllMainCRTStartup         0000000180015af0 f   LIBCMT:dllcrt0.obj
 0001:00014c60       strlen                     0000000180015c60 f   LIBCMT:strlen.obj
 0001:00014d08       _CxxThrowException         0000000180015d08 f   LIBCMT:throw.obj
 0001:00014dd0       ?_GetEstablisherFrame@@YAPEA_KPEA_KPEAU_xDISPATCHER_CONTEXT@@PEBU_s_FuncInfo@@0@Z 0000000180015dd0 f   LIBCMT:trnsctrl.obj
 0001:00014e9c       ?_GetRangeOfTrysToCheck@@YAPEBU_s_TryBlockMapEntry@@PEA_KPEBU_s_FuncInfo@@HHPEAI2PEAU_xDISPATCHER_CONTEXT@@@Z 0000000180015e9c f   LIBCMT:trnsctrl.obj
 0001:00014fc8       ?__FrameUnwindToEmptyState@@YAXPEA_KPEAU_xDISPATCHER_CONTEXT@@PEBU_s_FuncInfo@@@Z 0000000180015fc8 f   LIBCMT:trnsctrl.obj
 0001:0001505c       ?__SehTransFilter@@YAHPEAU_EXCEPTION_POINTERS@@PEAUEHExceptionRecord@@PEA_KPEAU_CONTEXT@@PEAU_xDISPATCHER_CONTEXT@@PEBU_s_FuncInfo@@PEAH@Z 000000018001605c f   LIBCMT:trnsctrl.obj
 0001:00015100       _CallSETranslator          0000000180016100 f   LIBCMT:trnsctrl.obj
 0001:00015154       _CreateFrameInfo           0000000180016154 f   LIBCMT:trnsctrl.obj
 0001:00015198       _FindAndUnlinkFrame        0000000180016198 f   LIBCMT:trnsctrl.obj
 0001:000151f8       _GetImageBase              00000001800161f8 f   LIBCMT:trnsctrl.obj
 0001:00015210       _GetThrowImageBase         0000000180016210 f   LIBCMT:trnsctrl.obj
 0001:00015228       _IsExceptionObjectToBeDestroyed 0000000180016228 f   LIBCMT:trnsctrl.obj
 0001:0001525c       _SetImageBase              000000018001625c f   LIBCMT:trnsctrl.obj
 0001:00015278       _SetThrowImageBase         0000000180016278 f   LIBCMT:trnsctrl.obj
 0001:00015294       _UnwindNestedFrames        0000000180016294 f   LIBCMT:trnsctrl.obj
 0001:000153b8       __CxxFrameHandler3         00000001800163b8 f   LIBCMT:trnsctrl.obj
 0001:00015440       _fpmath                    0000000180016440 f   LIBCMT:fpinit.obj
 0001:00015448       _cfltcvt_init              0000000180016448 f   LIBCMT:fpinit.obj
 0001:000154d0       ??0exception@std@@QEAA@AEBQEBD@Z 00000001800164d0 f   LIBCMT:stdexcpt.obj
 0001:00015500       ??0exception@std@@QEAA@AEBQEBDH@Z 0000000180016500 f   LIBCMT:stdexcpt.obj
 0001:0001551c       ??0exception@std@@QEAA@AEBV01@@Z 000000018001651c f   LIBCMT:stdexcpt.obj
 0001:00015548       ??1exception@std@@UEAA@XZ  0000000180016548 f   LIBCMT:stdexcpt.obj
 0001:00015558       ??4exception@std@@QEAAAEAV01@AEBV01@@Z 0000000180016558 f   LIBCMT:stdexcpt.obj
 0001:0001559c       ??_Eexception@std@@UEAAPEAXI@Z 000000018001659c f i LIBCMT:stdexcpt.obj
 0001:0001559c       ??_Gexception@std@@UEAAPEAXI@Z 000000018001659c f i LIBCMT:stdexcpt.obj
 0001:000155d8       ?_Copy_str@exception@std@@AEAAXPEBD@Z 00000001800165d8 f   LIBCMT:stdexcpt.obj
 0001:00015634       ?_Tidy@exception@std@@AEAAXXZ 0000000180016634 f   LIBCMT:stdexcpt.obj
 0001:0001565c       ?what@exception@std@@UEBAPEBDXZ 000000018001665c f   LIBCMT:stdexcpt.obj
 0001:00015670       __raise_securityfailure    0000000180016670 f   LIBCMT:gs_report.obj
 0001:000156bc       __report_gsfailure         00000001800166bc f   LIBCMT:gs_report.obj
 0001:00015790       __isa_available_init       0000000180016790 f   LIBCMT:cpu_disp.obj
 0001:00015934       ?_inconsistency@@YAXXZ     0000000180016934 f   LIBCMT:hooks.obj
 0001:00015954       ?terminate@@YAXXZ          0000000180016954 f   LIBCMT:hooks.obj
 0001:00015974       _initp_eh_hooks            0000000180016974 f   LIBCMT:hooks.obj
 0001:00015994       __C_specific_handler       0000000180016994 f   LIBCMT:chandler.obj
 0001:00015b78       __copy_path_to_wide_string 0000000180016b78 f   LIBCMT:crt0dat.obj
 0001:00015c78       __crtCorExitProcess        0000000180016c78 f   LIBCMT:crt0dat.obj
 0001:00015cbc       __crtExitProcess           0000000180016cbc f   LIBCMT:crt0dat.obj
 0001:00015cd4       __freeCrtMemory            0000000180016cd4 f   LIBCMT:crt0dat.obj
 0001:00015e1c       _amsg_exit                 0000000180016e1c f   LIBCMT:crt0dat.obj
 0001:00015e44       _cexit                     0000000180016e44 f   LIBCMT:crt0dat.obj
 0001:00015e54       _cinit                     0000000180016e54 f   LIBCMT:crt0dat.obj
 0001:00015eec       _exit                      0000000180016eec f   LIBCMT:crt0dat.obj
 0001:00015ef8       _init_pointers             0000000180016ef8 f   LIBCMT:crt0dat.obj
 0001:00015fa4       _initterm_e                0000000180016fa4 f   LIBCMT:crt0dat.obj
 0001:00015fe0       _lockexit                  0000000180016fe0 f   LIBCMT:crt0dat.obj
 0001:00015fec       _unlockexit                0000000180016fec f   LIBCMT:crt0dat.obj
 0001:00016190       _msize                     0000000180017190 f   LIBCMT:msize.obj
 0001:000161cc       _calloc_crt                00000001800171cc f   LIBCMT:crtheap.obj
 0001:0001624c       _malloc_crt                000000018001724c f   LIBCMT:crtheap.obj
 0001:000162c8       _realloc_crt               00000001800172c8 f   LIBCMT:crtheap.obj
 0001:0001634c       _recalloc_crt              000000018001734c f   LIBCMT:crtheap.obj
 0001:000163d0       _set_abort_behavior        00000001800173d0 f   LIBCMT:abort.obj
 0001:000163ec       abort                      00000001800173ec f   LIBCMT:abort.obj
 0001:00016444       _initp_misc_purevirt       0000000180017444 f   LIBCMT:inithelp.obj
 0001:0001644c       free                       000000018001744c f   LIBCMT:free.obj
 0001:0001648c       _clrfp                     000000018001748c f   LIBCMT:fpctrl.obj
 0001:000164ac       _ctrlfp                    00000001800174ac f   LIBCMT:fpctrl.obj
 0001:00016528       _set_statfp                0000000180017528 f   LIBCMT:fpctrl.obj
 0001:00016548       _statfp                    0000000180017548 f   LIBCMT:fpctrl.obj
 0001:00016680       _handle_error              0000000180017680 f   LIBCMT:libm_error.obj
 0001:000167a8       _handle_errorf             00000001800177a8 f   LIBCMT:libm_error.obj
 0001:000168dc       malloc                     00000001800178dc f   LIBCMT:malloc.obj
 0001:00016994       _callnewh                  0000000180017994 f   LIBCMT:handler.obj
 0001:000169c8       _initp_heap_handler        00000001800179c8 f   LIBCMT:handler.obj
 0001:000169d0       _call_reportfault          00000001800179d0 f   LIBCMT:invarg.obj
 0001:00016ac4       _initp_misc_invarg         0000000180017ac4 f   LIBCMT:invarg.obj
 0001:00016acc       _invalid_parameter         0000000180017acc f   LIBCMT:invarg.obj
 0001:00016b34       _invalid_parameter_noinfo  0000000180017b34 f   LIBCMT:invarg.obj
 0001:00016b54       _invoke_watson             0000000180017b54 f   LIBCMT:invarg.obj
 0001:00016b90       _flsbuf                    0000000180017b90 f   LIBCMT:_flsbuf.obj
 0001:00016d1c       _output_l                  0000000180017d1c f   LIBCMT:output.obj
 0001:0001785c       _output_s_l                000000018001885c f   LIBCMT:outputs.obj
 0001:00018284       __doserrno                 0000000180019284 f   LIBCMT:dosmap.obj
 0001:000182a4       _dosmaperr                 00000001800192a4 f   LIBCMT:dosmap.obj
 0001:000182f4       _errno                     00000001800192f4 f   LIBCMT:dosmap.obj
 0001:00018314       _get_errno_from_oserr      0000000180019314 f   LIBCMT:dosmap.obj
 0001:00018380       memset                     0000000180019380 f   LIBCMT:memset.obj
 0001:000185ac       _fcloseall                 00000001800195ac f   LIBCMT:closeall.obj
 0001:00018654       _fflush_nolock             0000000180019654 f   LIBCMT:fflush.obj
 0001:000186a0       _flush                     00000001800196a0 f   LIBCMT:fflush.obj
 0001:0001871c       _flushall                  000000018001971c f   LIBCMT:fflush.obj
 0001:00018728       fflush                     0000000180019728 f   LIBCMT:fflush.obj
 0001:00018854       _lock                      0000000180019854 f   LIBCMT:mlock.obj
 0001:00018898       _mtdeletelocks             0000000180019898 f   LIBCMT:mlock.obj
 0001:00018920       _mtinitlocknum             0000000180019920 f   LIBCMT:mlock.obj
 0001:000189e0       _mtinitlocks               00000001800199e0 f   LIBCMT:mlock.obj
 0001:00018a44       _unlock                    0000000180019a44 f   LIBCMT:mlock.obj
 0001:00018a5c       _wremove                   0000000180019a5c f   LIBCMT:wunlink.obj
 0001:00018a8c       memcpy_s                   0000000180019a8c f   LIBCMT:memcpy_s.obj
 0001:00018b14       wcscat_s                   0000000180019b14 f   LIBCMT:wcscat_s.obj
 0001:00018b9c       wcscpy_s                   0000000180019b9c f   LIBCMT:wcscpy_s.obj
 0001:00018c08       wcslen                     0000000180019c08 f   LIBCMT:wcslen.obj
 0001:00018c24       wcsncat_s                  0000000180019c24 f   LIBCMT:wcsncat_s.obj
 0001:00018d0c       _set_error_mode            0000000180019d0c f   LIBCMT:errmode.obj
 0001:00018d4c       _itow_s                    0000000180019d4c f   LIBCMT:xtows.obj
 0001:00018e84       setvbuf                    0000000180019e84 f   LIBCMT:setvbuf.obj
 0001:00018f9c       fwprintf                   0000000180019f9c f   LIBCMT:fwprintf.obj
 0001:00019030       _vswprintf_c_l             000000018001a030 f   LIBCMT:vswprnc.obj
 0001:00019068       _vswprintf_helper          000000018001a068 f   LIBCMT:vswprnc.obj
 0001:00019184       __get_sigabrt              000000018001a184 f   LIBCMT:winsig.obj
 0001:00019194       _initp_misc_winsig         000000018001a194 f   LIBCMT:winsig.obj
 0001:000191b4       raise                      000000018001a1b4 f   LIBCMT:winsig.obj
 0001:000193e8       __crtMessageBoxW           000000018001a3e8 f   LIBCMT:crtmboxw.obj
 0001:0001965c       __GSHandlerCheck           000000018001a65c f   LIBCMT:gshandler.obj
 0001:0001967c       __GSHandlerCheckCommon     000000018001a67c f   LIBCMT:gshandler.obj
 0001:000196e0       _FF_MSGBANNER              000000018001a6e0 f   LIBCMT:crt0msg.obj
 0001:00019724       _GET_RTERRMSG              000000018001a724 f   LIBCMT:crt0msg.obj
 0001:00019754       _NMSG_WRITE                000000018001a754 f   LIBCMT:crt0msg.obj
 0001:000199c4       _getstream                 000000018001a9c4 f   LIBCMT:stream.obj
 0001:00019afc       _openfile                  000000018001aafc f   LIBCMT:_open.obj
 0001:00019dd0       _local_unwind              000000018001add0 f   LIBCMT:jmpuwind.obj
 0001:00019e00       _NLG_Notify                000000018001ae00 f   LIBCMT:jmpuwind.obj
 0001:00019e20       __NLG_Dispatch2            000000018001ae20 f   LIBCMT:jmpuwind.obj
 0001:00019e30       __NLG_Return2              000000018001ae30 f   LIBCMT:jmpuwind.obj
 0001:00019e34       _fileno                    000000018001ae34 f   LIBCMT:fileno.obj
 0001:00019e5c       _ftbuf                     000000018001ae5c f   LIBCMT:_sftbuf.obj
 0001:00019e94       _stbuf                     000000018001ae94 f   LIBCMT:_sftbuf.obj
 0001:00019f64       _ioinit                    000000018001af64 f   LIBCMT:ioinit.obj
 0001:0001a294       _ioterm                    000000018001b294 f   LIBCMT:ioinit.obj
 0001:0001a308       _freefls                   000000018001b308 f   LIBCMT:tidtable.obj
 0001:0001a43c       _freeptd                   000000018001b43c f   LIBCMT:tidtable.obj
 0001:0001a478       _getptd                    000000018001b478 f   LIBCMT:tidtable.obj
 0001:0001a49c       _getptd_noexit             000000018001b49c f   LIBCMT:tidtable.obj
 0001:0001a520       _initptd                   000000018001b520 f   LIBCMT:tidtable.obj
 0001:0001a5e4       _mtinit                    000000018001b5e4 f   LIBCMT:tidtable.obj
 0001:0001a664       _mtterm                    000000018001b664 f   LIBCMT:tidtable.obj
 0001:0001a688       strcpy_s                   000000018001b688 f   LIBCMT:strcpy_s.obj
 0001:0001a6ec       strnlen                    000000018001b6ec f   LIBCMT:strlen_s.obj
 0001:0001a704       __wtomb_environ            000000018001b704 f   LIBCMT:wtombenv.obj
 0001:0001a7f8       _mbsnbicoll                000000018001b7f8 f   LIBCMT:mbsnbico.obj
 0001:0001a800       _mbsnbicoll_l              000000018001b800 f   LIBCMT:mbsnbico.obj
 0001:0001a910       strcmp                     000000018001b910 f   LIBCMT:strcmp.obj
 0001:0001a978       ?_Type_info_dtor@type_info@@CAXPEAV1@@Z 000000018001b978 f   LIBCMT:typname.obj
 0001:0001a9e4       _close                     000000018001b9e4 f   LIBCMT:close.obj
 0001:0001aaa8       _close_nolock              000000018001baa8 f   LIBCMT:close.obj
 0001:0001ab64       _freebuf                   000000018001bb64 f   LIBCMT:_freebuf.obj
 0001:0001ab9c       __addlocaleref             000000018001bb9c f   LIBCMT:localref.obj
 0001:0001ac28       __freetlocinfo             000000018001bc28 f   LIBCMT:localref.obj
 0001:0001adc0       __removelocaleref          000000018001bdc0 f   LIBCMT:localref.obj
 0001:0001ae64       __updatetlocinfo           000000018001be64 f   LIBCMT:localref.obj
 0001:0001aedc       _updatetlocinfoEx_nolock   000000018001bedc f   LIBCMT:localref.obj
 0001:0001af40       __initmbctable             000000018001bf40 f   LIBCMT:mbctype.obj
 0001:0001b25c       __updatetmbcinfo           000000018001c25c f   LIBCMT:mbctype.obj
 0001:0001b318       _setmbcp                   000000018001c318 f   LIBCMT:mbctype.obj
 0001:0001b55c       _setmbcp_nolock            000000018001c55c f   LIBCMT:mbctype.obj
 0001:0001b80c       _tolower_l                 000000018001c80c f   LIBCMT:tolower.obj
 0001:0001b960       tolower                    000000018001c960 f   LIBCMT:tolower.obj
 0001:0001b980       _locterm                   000000018001c980 f   LIBCMT:wsetloca.obj
 0001:0001b9c8       _XcptFilter                000000018001c9c8 f   LIBCMT:winxfltr.obj
 0001:0001bb94       __CppXcptFilter            000000018001cb94 f   LIBCMT:winxfltr.obj
 0001:0001bba8       _heap_init                 000000018001cba8 f   LIBCMT:heapinit.obj
 0001:0001bbc8       _heap_term                 000000018001cbc8 f   LIBCMT:heapinit.obj
 0001:0001bbd4       _setargv                   000000018001cbd4 f   LIBCMT:stdargv.obj
 0001:0001be90       _setenvp                   000000018001ce90 f   LIBCMT:stdenvp.obj
 0001:0001bfc4       __security_init_cookie     000000018001cfc4 f   LIBCMT:gs_support.obj
 0001:0001c070       DllMain                    000000018001d070 f   LIBCMT:dllmain.obj
 0001:0001c078       __crtGetEnvironmentStringsA 000000018001d078 f   LIBCMT:a_env.obj
 0001:0001c16c       __crtCaptureCurrentContext 000000018001d16c f   LIBCMT:winapisupp.obj
 0001:0001c1dc       __crtCapturePreviousContext 000000018001d1dc f   LIBCMT:winapisupp.obj
 0001:0001c250       __crtFlsAlloc              000000018001d250 f   LIBCMT:winapisupp.obj
 0001:0001c26c       __crtFlsFree               000000018001d26c f   LIBCMT:winapisupp.obj
 0001:0001c288       __crtFlsGetValue           000000018001d288 f   LIBCMT:winapisupp.obj
 0001:0001c2a4       __crtFlsSetValue           000000018001d2a4 f   LIBCMT:winapisupp.obj
 0001:0001c2c0       __crtInitializeCriticalSectionEx 000000018001d2c0 f   LIBCMT:winapisupp.obj
 0001:0001c2ec       __crtIsPackagedApp         000000018001d2ec f   LIBCMT:winapisupp.obj
 0001:0001c338       __crtLoadWinApiPointers    000000018001d338 f   LIBCMT:winapisupp.obj
 0001:0001c734       __crtSleep                 000000018001d734 f   LIBCMT:winapisupp.obj
 0001:0001c73c       __crtTerminateProcess      000000018001d73c f   LIBCMT:winapisupp.obj
 0001:0001c75c       __crtUnhandledException    000000018001d75c f   LIBCMT:winapisupp.obj
 0001:0001c77c       _RTC_Initialize            000000018001d77c f   LIBCMT:initsect.obj
 0001:0001c7b4       _RTC_Terminate             000000018001d7b4 f   LIBCMT:initsect.obj
 0001:0001c7ec       __DestructExceptionObject  000000018001d7ec f   LIBCMT:frame.obj
 0001:0001c85c       ??0bad_exception@std@@QEAA@AEBV01@@Z 000000018001d85c f i LIBCMT:frame.obj
 0001:0001c880       ??1bad_exception@std@@UEAA@XZ 000000018001d880 f i LIBCMT:frame.obj
 0001:0001c890       ??_Gbad_exception@std@@UEAAPEAXI@Z 000000018001d890 f i LIBCMT:frame.obj
 0001:0001c890       ??_Ebad_exception@std@@UEAAPEAXI@Z 000000018001d890 f i LIBCMT:frame.obj
 0001:0001d184       __AdjustPointer            000000018001e184 f   LIBCMT:frame.obj
 0001:0001d1a8       __BuildCatchObject         000000018001e1a8 f   LIBCMT:frame.obj
 0001:0001d260       __BuildCatchObjectHelper   000000018001e260 f   LIBCMT:frame.obj
 0001:0001d4b0       __CxxCallCatchBlock        000000018001e4b0 f   LIBCMT:frame.obj
 0001:0001d6b4       __FrameUnwindFilter        000000018001e6b4 f   LIBCMT:frame.obj
 0001:0001d708       __FrameUnwindToState       000000018001e708 f   LIBCMT:frame.obj
 0001:0001d89c       __InternalCxxFrameHandler  000000018001e89c f   LIBCMT:frame.obj
 0001:0001dac0       __TypeMatch                000000018001eac0 f   LIBCMT:frame.obj
 0001:0001dbf0       ?__GetCurrentState@@YAHPEA_KPEAU_xDISPATCHER_CONTEXT@@PEBU_s_FuncInfo@@@Z 000000018001ebf0 f   LIBCMT:ehstate.obj
 0001:0001dc18       ?__GetUnwindTryBlock@@YAHPEA_KPEAU_xDISPATCHER_CONTEXT@@PEBU_s_FuncInfo@@@Z 000000018001ec18 f   LIBCMT:ehstate.obj
 0001:0001dc44       ?__SetState@@YAXPEA_KPEAU_xDISPATCHER_CONTEXT@@PEBU_s_FuncInfo@@H@Z 000000018001ec44 f   LIBCMT:ehstate.obj
 0001:0001dc50       ?__SetUnwindTryBlock@@YAXPEA_KPEAU_xDISPATCHER_CONTEXT@@PEBU_s_FuncInfo@@H@Z 000000018001ec50 f   LIBCMT:ehstate.obj
 0001:0001dc8c       ?__StateFromControlPc@@YAHPEBU_s_FuncInfo@@PEAU_xDISPATCHER_CONTEXT@@@Z 000000018001ec8c f   LIBCMT:ehstate.obj
 0001:0001dc94       ?__StateFromIp@@YAHPEBU_s_FuncInfo@@PEAU_xDISPATCHER_CONTEXT@@_J@Z 000000018001ec94 f   LIBCMT:ehstate.obj
 0001:0001dd20       _cfltcvt                   000000018001ed20 f   LIBCMT:cvt.obj
 0001:0001dd44       _cfltcvt_l                 000000018001ed44 f   LIBCMT:cvt.obj
 0001:0001ddc4       _cftoa_l                   000000018001edc4 f   LIBCMT:cvt.obj
 0001:0001e370       _cftoe_l                   000000018001f370 f   LIBCMT:cvt.obj
 0001:0001e5cc       _cftof_l                   000000018001f5cc f   LIBCMT:cvt.obj
 0001:0001e6a0       _cftog_l                   000000018001f6a0 f   LIBCMT:cvt.obj
 0001:0001e7d4       _cropzeros                 000000018001f7d4 f   LIBCMT:cvt.obj
 0001:0001e7dc       _cropzeros_l               000000018001f7dc f   LIBCMT:cvt.obj
 0001:0001e874       _fassign                   000000018001f874 f   LIBCMT:cvt.obj
 0001:0001e87c       _fassign_l                 000000018001f87c f   LIBCMT:cvt.obj
 0001:0001e8bc       _forcdecpt                 000000018001f8bc f   LIBCMT:cvt.obj
 0001:0001e8c4       _forcdecpt_l               000000018001f8c4 f   LIBCMT:cvt.obj
 0001:0001e944       _positive                  000000018001f944 f   LIBCMT:cvt.obj
 0001:0001e958       _initp_misc_cfltcvt_tab    000000018001f958 f   LIBCMT:cmiscdat.obj
 0001:0001e994       __crt_debugger_hook        000000018001f994 f   LIBCMT:dbghook.obj
 0001:0001e9a0       _FindPESection             000000018001f9a0 f   LIBCMT:pesect.obj
 0001:0001e9f0       _IsNonwritableInCurrentImage 000000018001f9f0 f   LIBCMT:pesect.obj
 0001:0001ea40       _ValidateImageBase         000000018001fa40 f   LIBCMT:pesect.obj
 0001:0001ea70       _initp_misc_rand_s         000000018001fa70 f   LIBCMT:rand_s.obj
 0001:0001ea78       realloc                    000000018001fa78 f   LIBCMT:realloc.obj
 0001:0001eb4c       _recalloc                  000000018001fb4c f   LIBCMT:recalloc.obj
 0001:0001ebd4       _calloc_impl               000000018001fbd4 f   LIBCMT:calloc_impl.obj
 0001:0001ec70       GetTableIndexFromLocaleName 000000018001fc70 f   LIBCMT:winapinls.obj
 0001:0001ecfc       __crtCompareStringEx       000000018001fcfc f   LIBCMT:winapinls.obj
 0001:0001ed8c       __crtDownlevelLocaleNameToLCID 000000018001fd8c f   LIBCMT:winapinls.obj
 0001:0001edc0       __crtLCMapStringEx         000000018001fdc0 f   LIBCMT:winapinls.obj
 0001:0001ee50       __wcsnicmp_ascii           000000018001fe50 f   LIBCMT:winapinls.obj
 0001:0001eec0       _get_fpsr                  000000018001fec0 f   LIBCMT:fpsr.obj
 0001:0001eed0       _set_fpsr                  000000018001fed0 f   LIBCMT:fpsr.obj
 0001:0001eeda       _fclrf                     000000018001feda f   LIBCMT:fpsr.obj
 0001:0001eeee       _frnd                      000000018001feee f   LIBCMT:fpsr.obj
 0001:0001ef10       _raise_exc                 000000018001ff10 f   LIBCMT:fpexcept.obj
 0001:0001ef38       _raise_exc_ex              000000018001ff38 f   LIBCMT:fpexcept.obj
 0001:0001f23c       _raise_excf                000000018002023c f   LIBCMT:fpexcept.obj
 0001:0001f268       _set_errno_from_matherr    0000000180020268 f   LIBCMT:fpexcept.obj
 0001:0001f298       _matherr                   0000000180020298 f   LIBCMT:matherr.obj
 0001:0001f29c       _isatty                    000000018002029c f   LIBCMT:isatty.obj
 0001:0001f2fc       _write                     00000001800202fc f   LIBCMT:write.obj
 0001:0001f3e0       _write_nolock              00000001800203e0 f   LIBCMT:write.obj
 0001:0001fbd4       _lseeki64                  0000000180020bd4 f   LIBCMT:lseeki64.obj
 0001:0001fcbc       _lseeki64_nolock           0000000180020cbc f   LIBCMT:lseeki64.obj
 0001:0001fd50       _getbuf                    0000000180020d50 f   LIBCMT:_getbuf.obj
 0001:0001fda4       _isleadbyte_l              0000000180020da4 f i LIBCMT:_wctype.obj
 0001:0001fde8       isleadbyte                 0000000180020de8 f i LIBCMT:_wctype.obj
 0001:0001fe30       _get_printf_count_output   0000000180020e30 f   LIBCMT:printf.obj
 0001:0001fe48       _wctomb_s_l                0000000180020e48 f   LIBCMT:wctomb.obj
 0001:0001ffd4       wctomb_s                   0000000180020fd4 f   LIBCMT:wctomb.obj
 0001:0001ffe8       _commit                    0000000180020fe8 f   LIBCMT:commit.obj
 0001:000200c0       _woutput_l                 00000001800210c0 f   LIBCMT:woutput.obj
 0001:00020c80       wcsncpy_s                  0000000180021c80 f   LIBCMT:wcsncpy_s.obj
 0001:00020d4c       _sopen_helper              0000000180021d4c f   LIBCMT:open.obj
 0001:00020e2c       _sopen_nolock              0000000180021e2c f   LIBCMT:open.obj
 0001:00020eb4       _sopen_s                   0000000180021eb4 f   LIBCMT:open.obj
 0001:00020ee8       _mbsnbcmp                  0000000180021ee8 f   LIBCMT:mbsnbcmp.obj
 0001:00020ef0       _mbsnbcmp_l                0000000180021ef0 f   LIBCMT:mbsnbcmp.obj
 0001:0002101c       _mbsnbicmp                 000000018002201c f   LIBCMT:mbsnbicm.obj
 0001:00021024       _mbsnbicmp_l               0000000180022024 f   LIBCMT:mbsnbicm.obj
 0001:000211d4       __crtsetenv                00000001800221d4 f   LIBCMT:setenv.obj
 0001:00021588       _strnicoll_l               0000000180022588 f   LIBCMT:strnicol.obj
 0001:000219f0       __crtCompareStringA        00000001800229f0 f   LIBCMT:a_cmp.obj
 0001:00021a7c       __lock_fhandle             0000000180022a7c f   LIBCMT:osfinfo.obj
 0001:00021b14       _alloc_osfhnd              0000000180022b14 f   LIBCMT:osfinfo.obj
 0001:00021d0c       _free_osfhnd               0000000180022d0c f   LIBCMT:osfinfo.obj
 0001:00021db8       _get_osfhandle             0000000180022db8 f   LIBCMT:osfinfo.obj
 0001:00021e2c       _set_osfhnd                0000000180022e2c f   LIBCMT:osfinfo.obj
 0001:00021edc       _unlock_fhandle            0000000180022edc f   LIBCMT:osfinfo.obj
 0001:00021f08       __free_lconv_mon           0000000180022f08 f   LIBCMT:initmon.obj
 0001:00022014       __free_lconv_num           0000000180023014 f   LIBCMT:initnum.obj
 0001:00022080       __free_lc_time             0000000180023080 f   LIBCMT:inittime.obj
 0001:00022768       __crtLCMapStringA          0000000180023768 f   LIBCMT:a_map.obj
 0001:00022978       __crtGetStringTypeA        0000000180023978 f   LIBCMT:a_str.obj
 0001:000229f4       _isctype_l                 00000001800239f4 f   LIBCMT:isctype.obj
 0001:00022ae0       memcmp                     0000000180023ae0 f   LIBCMT:memcmp.obj
 0001:00022c24       _ismbblead                 0000000180023c24 f   LIBCMT:ismbbyte.obj
 0001:00022c38       ?_ValidateRead@@YAHPEBXI@Z 0000000180023c38 f   LIBCMT:validate.obj
 0001:00022c38       ?_ValidateExecute@@YAHP6A_JXZ@Z 0000000180023c38 f   LIBCMT:validate.obj
 0001:00022c38       ?_ValidateWrite@@YAHPEAXI@Z 0000000180023c38 f   LIBCMT:validate.obj
 0001:00022c60       _CallSettingFrame          0000000180023c60 f   LIBCMT:handlers.obj
 0001:00022ca0       _GetNextInstrOffset        0000000180023ca0 f   LIBCMT:handlers.obj
 0001:00022ca8       isdigit                    0000000180023ca8 f i LIBCMT:_ctype.obj
 0001:00022d24       strrchr                    0000000180023d24 f   LIBCMT:strrchr.obj
 0001:00022e68       _fptostr                   0000000180023e68 f   LIBCMT:_fptostr.obj
 0001:00022f34       __crt_atoflt_l             0000000180023f34 f   LIBCMT:atodbl.obj
 0001:00023004       _atodbl_l                  0000000180024004 f   LIBCMT:atodbl.obj
 0001:000230cc       _atoflt_l                  00000001800240cc f   LIBCMT:atodbl.obj
 0001:000230d4       __dtold                    00000001800240d4 f   LIBCMT:cfout.obj
 0001:000231a4       _fltout2                   00000001800241a4 f   LIBCMT:cfout.obj
 0001:0002325c       _fptrap                    000000018002425c f   LIBCMT:crt0fp.obj
 0001:00023280       _alloca_probe              0000000180024280 f   LIBCMT:chkstk.obj
 0001:00023280       __chkstk                   0000000180024280 f   LIBCMT:chkstk.obj
 0001:000232d0       _mbtowc_l                  00000001800242d0 f   LIBCMT:mbtowc.obj
 0001:00023424       mbtowc                     0000000180024424 f   LIBCMT:mbtowc.obj
 0001:0002342c       _putwch_nolock             000000018002442c f   LIBCMT:putwch.obj
 0001:00023488       _fputwc_nolock             0000000180024488 f   LIBCMT:fputwc.obj
 0001:0002376c       _wsopen_nolock             000000018002476c f   LIBCMT:wopen.obj
 0001:00023f40       strncmp                    0000000180024f40 f   LIBCMT:strncmp.obj
 0001:00023fc0       __ascii_strnicmp           0000000180024fc0 f   LIBCMT:strnicmp.obj
 0001:00024008       _strnicmp                  0000000180025008 f   LIBCMT:strnicmp.obj
 0001:00024058       _strnicmp_l                0000000180025058 f   LIBCMT:strnicmp.obj
 0001:00024134       _strdup                    0000000180025134 f   LIBCMT:strdup.obj
 0001:000241a4       _mbschr                    00000001800251a4 f   LIBCMT:mbschr.obj
 0001:000241ac       _mbschr_l                  00000001800251ac f   LIBCMT:mbschr.obj
 0001:0002426c       _ld12tod                   000000018002526c f   LIBCMT:intrncvt.obj
 0001:00024824       _ld12tof                   0000000180025824 f   LIBCMT:intrncvt.obj
 0001:00024ddc       __strgtold12_l             0000000180025ddc f   LIBCMT:strgtold.obj
 0001:00025640       $I10_OUTPUT                0000000180026640 f   LIBCMT:x10fout.obj
 0001:00026118       __termconout               0000000180027118 f   LIBCMT:initcon.obj
 0001:00026138       __initconout               0000000180027138 f   LIBCMT:initcon.obj
 0001:00026174       _flswbuf                   0000000180027174 f   LIBCMT:_flswbuf.obj
 0001:00026304       _chsize_nolock             0000000180027304 f   LIBCMT:chsize.obj
 0001:0002649c       _read_nolock               000000018002749c f   LIBCMT:read.obj
 0001:00026d0c       _get_fmode                 0000000180027d0c f   LIBCMT:setmode.obj
 0001:00026d3c       _setmode_nolock            0000000180027d3c f   LIBCMT:setmode.obj
 0001:00026e18       strchr                     0000000180027e18 f   LIBCMT:strchr.obj
 0001:00026ea4       __mtold12                  0000000180027ea4 f   LIBCMT:mantold.obj
 0001:000270d0       RtlUnwindEx                00000001800280d0 f   kernel32:KERNEL32.dll
 0001:000270d6       IsProcessorFeaturePresent  00000001800280d6 f   kernel32:KERNEL32.dll
 0001:000270dc       __delayLoadHelper2         00000001800280dc f   DelayImp:delayhlp.obj
 0001:00027374       __GSHandlerCheck_EH        0000000180028374 f   LIBCMT:gshandlereh.obj
 0001:00027410       cos                        0000000180028410 f   LIBCMT:cos.obj
 0001:00027970       cosf                       0000000180028970 f   LIBCMT:cosf.obj
 0001:00027e70       expf                       0000000180028e70 f   LIBCMT:expf.obj
 0001:000280d8       floor                      00000001800290d8 f   LIBCMT:floor.obj
 0001:000281e0       powf                       00000001800291e0 f   LIBCMT:powf.obj
 0001:00028d70       sin                        0000000180029d70 f   LIBCMT:sin.obj
 0001:00029290       sinf                       000000018002a290 f   LIBCMT:sinf.obj
 0001:00029960       __fma3_lib_init            000000018002a960 f   LIBCMT:fma3_available.obj
 0001:000299a0       __remainder_piby2_forAsm   000000018002a9a0 f   LIBCMT:remainder_piby2_forAsm.obj
 0001:00029bb0       __remainder_piby2_cw_forAsm 000000018002abb0 f   LIBCMT:remainder_piby2_forAsm.obj
 0001:00029cf0       __remainder_piby2_fma3     000000018002acf0 f   LIBCMT:remainder_piby2_forFMA3.obj
 0001:00029ee0       __remainder_piby2_fma3_bdl 000000018002aee0 f   LIBCMT:remainder_piby2_forFMA3.obj
 0001:00029f58       _cos_special               000000018002af58 f   LIBCMT:sincos_special.obj
 0001:00029f6c       _cosf_special              000000018002af6c f   LIBCMT:sincos_special.obj
 0001:00029f80       _sin_special               000000018002af80 f   LIBCMT:sincos_special.obj
 0001:00029f94       _sincos_special            000000018002af94 f   LIBCMT:sincos_special.obj
 0001:0002a068       _sincosf_special           000000018002b068 f   LIBCMT:sincos_special.obj
 0001:0002a104       _sinf_special              000000018002b104 f   LIBCMT:sincos_special.obj
 0001:0002a120       __remainder_piby2d2f_forAsm 000000018002b120 f   LIBCMT:remainder_piby2f_forAsm.obj
 0001:0002a270       _expf_special              000000018002b270 f   LIBCMT:exp_special.obj
 0001:0002a350       _powf_special              000000018002b350 f   LIBCMT:pow_special.obj
 0001:0002a480       __remainder_piby2d2f_forC  000000018002b480 f   LIBCMT:remainder_piby2f_forC.obj
 0001:0002c610       ??__Fs_path@?1??temporary_path@cimg@cimg_library@@YAPEBDQEBD_N@Z@YAXXZ 000000018002d610 f i image.obj
 0001:0002c630       ??__Fs_path@?1??programfiles_path@cimg@cimg_library@@YAPEBDQEBD_N@Z@YAXXZ 000000018002d630 f i image.obj
 0001:0002c650       ??__Fs_path@?1??imagemagick_path@cimg@cimg_library@@YAPEBDQEBD_N@Z@YAXXZ 000000018002d650 f i image.obj
 0001:0002c670       ??__Fs_path@?1??graphicsmagick_path@cimg@cimg_library@@YAPEBDQEBD_N@Z@YAXXZ 000000018002d670 f i image.obj
 0001:0002c690       ??__Fs_path@?1??medcon_path@cimg@cimg_library@@YAPEBDQEBD_N@Z@YAXXZ 000000018002d690 f i image.obj
 0001:0002c6b0       ??__Fres@?1??strbuffersize@cimg@cimg_library@@YAPEBDK@Z@YAXXZ 000000018002d6b0 f i image.obj
 0002:00000000       __imp_WaitForSingleObject  000000018002e000     kernel32:KERNEL32.dll
 0002:00000008       __imp_GetShortPathNameA    000000018002e008     kernel32:KERNEL32.dll
 0002:00000010       __imp_GetLocalTime         000000018002e010     kernel32:KERNEL32.dll
 0002:00000018       __imp_CreateMutexA         000000018002e018     kernel32:KERNEL32.dll
 0002:00000020       __imp_ReleaseMutex         000000018002e020     kernel32:KERNEL32.dll
 0002:00000028       __imp_GetModuleHandleA     000000018002e028     kernel32:KERNEL32.dll
 0002:00000030       __imp_ReadConsoleW         000000018002e030     kernel32:KERNEL32.dll
 0002:00000038       __imp_ReadFile             000000018002e038     kernel32:KERNEL32.dll
 0002:00000040       __imp_EncodePointer        000000018002e040     kernel32:KERNEL32.dll
 0002:00000048       __imp_DecodePointer        000000018002e048     kernel32:KERNEL32.dll
 0002:00000050       __imp_EnterCriticalSection 000000018002e050     kernel32:KERNEL32.dll
 0002:00000058       __imp_LeaveCriticalSection 000000018002e058     kernel32:KERNEL32.dll
 0002:00000060       __imp_GetCurrentProcessId  000000018002e060     kernel32:KERNEL32.dll
 0002:00000068       __imp_GetStdHandle         000000018002e068     kernel32:KERNEL32.dll
 0002:00000070       __imp_GetFileType          000000018002e070     kernel32:KERNEL32.dll
 0002:00000078       __imp_GetModuleFileNameW   000000018002e078     kernel32:KERNEL32.dll
 0002:00000080       __imp_GetModuleHandleExW   000000018002e080     kernel32:KERNEL32.dll
 0002:00000088       __imp_WriteConsoleW        000000018002e088     kernel32:KERNEL32.dll
 0002:00000090       __imp_GetCommandLineA      000000018002e090     kernel32:KERNEL32.dll
 0002:00000098       __imp_GetCurrentThreadId   000000018002e098     kernel32:KERNEL32.dll
 0002:000000a0       __imp_RtlPcToFileHeader    000000018002e0a0     kernel32:KERNEL32.dll
 0002:000000a8       __imp_RaiseException       000000018002e0a8     kernel32:KERNEL32.dll
 0002:000000b0       __imp_RtlLookupFunctionEntry 000000018002e0b0     kernel32:KERNEL32.dll
 0002:000000b8       __imp_RtlUnwindEx          000000018002e0b8     kernel32:KERNEL32.dll
 0002:000000c0       __imp_IsDebuggerPresent    000000018002e0c0     kernel32:KERNEL32.dll
 0002:000000c8       __imp_IsProcessorFeaturePresent 000000018002e0c8     kernel32:KERNEL32.dll
 0002:000000d0       __imp_GetLastError         000000018002e0d0     kernel32:KERNEL32.dll
 0002:000000d8       __imp_ExitProcess          000000018002e0d8     kernel32:KERNEL32.dll
 0002:000000e0       __imp_GetProcAddress       000000018002e0e0     kernel32:KERNEL32.dll
 0002:000000e8       __imp_AreFileApisANSI      000000018002e0e8     kernel32:KERNEL32.dll
 0002:000000f0       __imp_MultiByteToWideChar  000000018002e0f0     kernel32:KERNEL32.dll
 0002:000000f8       __imp_WideCharToMultiByte  000000018002e0f8     kernel32:KERNEL32.dll
 0002:00000100       __imp_HeapSize             000000018002e100     kernel32:KERNEL32.dll
 0002:00000108       __imp_HeapFree             000000018002e108     kernel32:KERNEL32.dll
 0002:00000110       __imp_HeapAlloc            000000018002e110     kernel32:KERNEL32.dll
 0002:00000118       __imp_DeleteCriticalSection 000000018002e118     kernel32:KERNEL32.dll
 0002:00000120       __imp_DeleteFileW          000000018002e120     kernel32:KERNEL32.dll
 0002:00000128       __imp_OutputDebugStringW   000000018002e128     kernel32:KERNEL32.dll
 0002:00000130       __imp_LoadLibraryExW       000000018002e130     kernel32:KERNEL32.dll
 0002:00000138       __imp_WriteFile            000000018002e138     kernel32:KERNEL32.dll
 0002:00000140       __imp_GetStartupInfoW      000000018002e140     kernel32:KERNEL32.dll
 0002:00000148       __imp_SetLastError         000000018002e148     kernel32:KERNEL32.dll
 0002:00000150       __imp_CloseHandle          000000018002e150     kernel32:KERNEL32.dll
 0002:00000158       __imp_IsValidCodePage      000000018002e158     kernel32:KERNEL32.dll
 0002:00000160       __imp_GetACP               000000018002e160     kernel32:KERNEL32.dll
 0002:00000168       __imp_GetOEMCP             000000018002e168     kernel32:KERNEL32.dll
 0002:00000170       __imp_GetCPInfo            000000018002e170     kernel32:KERNEL32.dll
 0002:00000178       __imp_GetProcessHeap       000000018002e178     kernel32:KERNEL32.dll
 0002:00000180       __imp_GetModuleFileNameA   000000018002e180     kernel32:KERNEL32.dll
 0002:00000188       __imp_QueryPerformanceCounter 000000018002e188     kernel32:KERNEL32.dll
 0002:00000190       __imp_GetSystemTimeAsFileTime 000000018002e190     kernel32:KERNEL32.dll
 0002:00000198       __imp_GetEnvironmentStringsW 000000018002e198     kernel32:KERNEL32.dll
 0002:000001a0       __imp_FreeEnvironmentStringsW 000000018002e1a0     kernel32:KERNEL32.dll
 0002:000001a8       __imp_RtlCaptureContext    000000018002e1a8     kernel32:KERNEL32.dll
 0002:000001b0       __imp_RtlVirtualUnwind     000000018002e1b0     kernel32:KERNEL32.dll
 0002:000001b8       __imp_UnhandledExceptionFilter 000000018002e1b8     kernel32:KERNEL32.dll
 0002:000001c0       __imp_SetUnhandledExceptionFilter 000000018002e1c0     kernel32:KERNEL32.dll
 0002:000001c8       __imp_InitializeCriticalSectionAndSpinCount 000000018002e1c8     kernel32:KERNEL32.dll
 0002:000001d0       __imp_Sleep                000000018002e1d0     kernel32:KERNEL32.dll
 0002:000001d8       __imp_GetCurrentProcess    000000018002e1d8     kernel32:KERNEL32.dll
 0002:000001e0       __imp_TerminateProcess     000000018002e1e0     kernel32:KERNEL32.dll
 0002:000001e8       __imp_TlsAlloc             000000018002e1e8     kernel32:KERNEL32.dll
 0002:000001f0       __imp_TlsGetValue          000000018002e1f0     kernel32:KERNEL32.dll
 0002:000001f8       __imp_TlsSetValue          000000018002e1f8     kernel32:KERNEL32.dll
 0002:00000200       __imp_TlsFree              000000018002e200     kernel32:KERNEL32.dll
 0002:00000208       __imp_GetModuleHandleW     000000018002e208     kernel32:KERNEL32.dll
 0002:00000210       __imp_FreeLibrary          000000018002e210     kernel32:KERNEL32.dll
 0002:00000218       __imp_HeapReAlloc          000000018002e218     kernel32:KERNEL32.dll
 0002:00000220       __imp_CompareStringW       000000018002e220     kernel32:KERNEL32.dll
 0002:00000228       __imp_LCMapStringW         000000018002e228     kernel32:KERNEL32.dll
 0002:00000230       __imp_GetConsoleCP         000000018002e230     kernel32:KERNEL32.dll
 0002:00000238       __imp_GetConsoleMode       000000018002e238     kernel32:KERNEL32.dll
 0002:00000240       __imp_SetFilePointerEx     000000018002e240     kernel32:KERNEL32.dll
 0002:00000248       __imp_FlushFileBuffers     000000018002e248     kernel32:KERNEL32.dll
 0002:00000250       __imp_SetEnvironmentVariableA 000000018002e250     kernel32:KERNEL32.dll
 0002:00000258       __imp_SetStdHandle         000000018002e258     kernel32:KERNEL32.dll
 0002:00000260       __imp_GetStringTypeW       000000018002e260     kernel32:KERNEL32.dll
 0002:00000268       __imp_CreateFileW          000000018002e268     kernel32:KERNEL32.dll
 0002:00000270       __imp_SetEndOfFile         000000018002e270     kernel32:KERNEL32.dll
 0002:00000278       __imp_LoadLibraryExA       000000018002e278     kernel32:KERNEL32.dll
 0002:00000280       \177KERNEL32_NULL_THUNK_DATA 000000018002e280     kernel32:KERNEL32.dll
 0002:00000288       __imp_SHGetSpecialFolderPathA 000000018002e288     shell32:SHELL32.dll
 0002:00000290       \177SHELL32_NULL_THUNK_DATA 000000018002e290     shell32:SHELL32.dll
 0002:00000298       __xc_a                     000000018002e298     LIBCMT:crt0init.obj
 0002:00000378       _register_lwip_image_      000000018002e378     init.obj
 0002:00000380       __xc_z                     000000018002e380     LIBCMT:crt0init.obj
 0002:00000388       __xi_a                     000000018002e388     LIBCMT:crt0init.obj
 0002:000003b8       __xi_z                     000000018002e3b8     LIBCMT:crt0init.obj
 0002:000003c0       __xp_a                     000000018002e3c0     LIBCMT:crt0init.obj
 0002:000003e0       __xp_z                     000000018002e3e0     LIBCMT:crt0init.obj
 0002:000003e8       __xt_a                     000000018002e3e8     LIBCMT:crt0init.obj
 0002:000003f0       __xt_z                     000000018002e3f0     LIBCMT:crt0init.obj
 0002:00000440       __sz_node_exe              000000018002e440     node:node.exe
 0002:00000df0       ??_C@_0BC@CIJDGCDI@permission?5denied?$AA@ 000000018002edf0     libcpmt:syserror.obj
 0002:00000e08       ??_C@_0M@MIDIAGJP@file?5exists?$AA@ 000000018002ee08     libcpmt:syserror.obj
 0002:00000e18       ??_C@_0P@FDINDDOK@no?5such?5device?$AA@ 000000018002ee18     libcpmt:syserror.obj
 0002:00000e28       ??_C@_0BC@EJHOMAAK@filename?5too?5long?$AA@ 000000018002ee28     libcpmt:syserror.obj
 0002:00000e40       ??_C@_0BI@NGCEHDD@device?5or?5resource?5busy?$AA@ 000000018002ee40     libcpmt:syserror.obj
 0002:00000e58       ??_C@_08GLNPIFBN@io?5error?$AA@ 000000018002ee58     libcpmt:syserror.obj
 0002:00000e68       ??_C@_0BE@JIDOCPHM@directory?5not?5empty?$AA@ 000000018002ee68     libcpmt:syserror.obj
 0002:00000e80       ??_C@_0BB@FCMFBGOM@invalid?5argument?$AA@ 000000018002ee80     libcpmt:syserror.obj
 0002:00000e98       ??_C@_0BD@IJDJKDEA@no?5space?5on?5device?$AA@ 000000018002ee98     libcpmt:syserror.obj
 0002:00000eb0       ??_C@_0BK@NDOCBPGE@no?5such?5file?5or?5directory?$AA@ 000000018002eeb0     libcpmt:syserror.obj
 0002:00000ed0       ??_C@_0BH@KEFGLDAF@function?5not?5supported?$AA@ 000000018002eed0     libcpmt:syserror.obj
 0002:00000ee8       ??_C@_0BC@NJECKMKE@no?5lock?5available?$AA@ 000000018002eee8     libcpmt:syserror.obj
 0002:00000f00       ??_C@_0BC@ENOOLCNF@not?5enough?5memory?$AA@ 000000018002ef00     libcpmt:syserror.obj
 0002:00000f18       ??_C@_0BP@LKNGHENJ@resource?5unavailable?5try?5again?$AA@ 000000018002ef18     libcpmt:syserror.obj
 0002:00000f38       ??_C@_0BC@PPHBOELF@cross?5device?5link?$AA@ 000000018002ef38     libcpmt:syserror.obj
 0002:00000f50       ??_C@_0BD@MOLBPMEA@operation?5canceled?$AA@ 000000018002ef50     libcpmt:syserror.obj
 0002:00000f68       ??_C@_0BE@GHAFMPAH@too?5many?5files?5open?$AA@ 000000018002ef68     libcpmt:syserror.obj
 0002:00000f80       ??_C@_0BC@FNODOBAE@permission_denied?$AA@ 000000018002ef80     libcpmt:syserror.obj
 0002:00000f98       ??_C@_0P@LNDJPBFK@address_in_use?$AA@ 000000018002ef98     libcpmt:syserror.obj
 0002:00000fa8       ??_C@_0BG@IPMGOJF@address_not_available?$AA@ 000000018002efa8     libcpmt:syserror.obj
 0002:00000fc0       ??_C@_0BN@LCBDHODA@address_family_not_supported?$AA@ 000000018002efc0     libcpmt:syserror.obj
 0002:00000fe0       ??_C@_0BP@FOJJHMCC@connection_already_in_progress?$AA@ 000000018002efe0     libcpmt:syserror.obj
 0002:00001000       ??_C@_0BE@DLHHIBGN@bad_file_descriptor?$AA@ 000000018002f000     libcpmt:syserror.obj
 0002:00001018       ??_C@_0BD@OJMJDIGI@connection_aborted?$AA@ 000000018002f018     libcpmt:syserror.obj
 0002:00001030       ??_C@_0BD@NGKCIFEP@connection_refused?$AA@ 000000018002f030     libcpmt:syserror.obj
 0002:00001048       ??_C@_0BB@JOANDNCK@connection_reset?$AA@ 000000018002f048     libcpmt:syserror.obj
 0002:00001060       ??_C@_0BN@JLJNLKLK@destination_address_required?$AA@ 000000018002f060     libcpmt:syserror.obj
 0002:00001080       ??_C@_0M@IJGMGFGP@bad_address?$AA@ 000000018002f080     libcpmt:syserror.obj
 0002:00001090       ??_C@_0BB@KKNHPPIN@host_unreachable?$AA@ 000000018002f090     libcpmt:syserror.obj
 0002:000010a8       ??_C@_0BG@DJGBJIIK@operation_in_progress?$AA@ 000000018002f0a8     libcpmt:syserror.obj
 0002:000010c0       ??_C@_0M@EGEKIIMP@interrupted?$AA@ 000000018002f0c0     libcpmt:syserror.obj
 0002:000010d0       ??_C@_0BB@FFIHMIPJ@invalid_argument?$AA@ 000000018002f0d0     libcpmt:syserror.obj
 0002:000010e8       ??_C@_0BC@FIFLCHLO@already_connected?$AA@ 000000018002f0e8     libcpmt:syserror.obj
 0002:00001100       ??_C@_0BE@GJJJJDDA@too_many_files_open?$AA@ 000000018002f100     libcpmt:syserror.obj
 0002:00001118       ??_C@_0N@HPMLKHPL@message_size?$AA@ 000000018002f118     libcpmt:syserror.obj
 0002:00001128       ??_C@_0BC@LEEIKBAL@filename_too_long?$AA@ 000000018002f128     libcpmt:syserror.obj
 0002:00001140       ??_C@_0N@FCPALPJK@network_down?$AA@ 000000018002f140     libcpmt:syserror.obj
 0002:00001150       ??_C@_0O@EHNDLHIG@network_reset?$AA@ 000000018002f150     libcpmt:syserror.obj
 0002:00001160       ??_C@_0BE@JFNJIDNF@network_unreachable?$AA@ 000000018002f160     libcpmt:syserror.obj
 0002:00001178       ??_C@_0BA@FDIJKJCL@no_buffer_space?$AA@ 000000018002f178     libcpmt:syserror.obj
 0002:00001188       ??_C@_0BD@JHIHCGKP@no_protocol_option?$AA@ 000000018002f188     libcpmt:syserror.obj
 0002:000011a0       ??_C@_0O@GBCLHHD@not_connected?$AA@ 000000018002f1a0     libcpmt:syserror.obj
 0002:000011b0       ??_C@_0N@IMHKKLEM@not_a_socket?$AA@ 000000018002f1b0     libcpmt:syserror.obj
 0002:000011c0       ??_C@_0BI@ICEIDKLJ@operation_not_supported?$AA@ 000000018002f1c0     libcpmt:syserror.obj
 0002:000011d8       ??_C@_0BH@KAPBAIJF@protocol_not_supported?$AA@ 000000018002f1d8     libcpmt:syserror.obj
 0002:000011f0       ??_C@_0BE@GAOJJFPC@wrong_protocol_type?$AA@ 000000018002f1f0     libcpmt:syserror.obj
 0002:00001208       ??_C@_09NCHNLHPG@timed_out?$AA@ 000000018002f208     libcpmt:syserror.obj
 0002:00001218       ??_C@_0BG@GDGHKFDH@operation_would_block?$AA@ 000000018002f218     libcpmt:syserror.obj
 0002:00001230       ??_C@_0BN@LKKBCCDB@address?5family?5not?5supported?$AA@ 000000018002f230     libcpmt:syserror.obj
 0002:00001250       ??_C@_0P@LDMLAFHI@address?5in?5use?$AA@ 000000018002f250     libcpmt:syserror.obj
 0002:00001260       ??_C@_0BG@DHPCNBJB@address?5not?5available?$AA@ 000000018002f260     libcpmt:syserror.obj
 0002:00001278       ??_C@_0BC@DFIBIBIL@already?5connected?$AA@ 000000018002f278     libcpmt:syserror.obj
 0002:00001290       ??_C@_0BH@CAKOHOMI@argument?5list?5too?5long?$AA@ 000000018002f290     libcpmt:syserror.obj
 0002:000012a8       ??_C@_0BH@CGIMPKIM@argument?5out?5of?5domain?$AA@ 000000018002f2a8     libcpmt:syserror.obj
 0002:000012c0       ??_C@_0M@KGHGGJGL@bad?5address?$AA@ 000000018002f2c0     libcpmt:syserror.obj
 0002:000012d0       ??_C@_0BE@MPJPGCEO@bad?5file?5descriptor?$AA@ 000000018002f2d0     libcpmt:syserror.obj
 0002:000012e8       ??_C@_0M@PMMIEFCP@bad?5message?$AA@ 000000018002f2e8     libcpmt:syserror.obj
 0002:000012f8       ??_C@_0M@KPHOFDBE@broken?5pipe?$AA@ 000000018002f2f8     libcpmt:syserror.obj
 0002:00001308       ??_C@_0BD@MGNDDEGM@connection?5aborted?$AA@ 000000018002f308     libcpmt:syserror.obj
 0002:00001320       ??_C@_0BP@KAIHPOGN@connection?5already?5in?5progress?$AA@ 000000018002f320     libcpmt:syserror.obj
 0002:00001340       ??_C@_0BD@PJLIIJEL@connection?5refused?$AA@ 000000018002f340     libcpmt:syserror.obj
 0002:00001358       ??_C@_0BB@IECNJNOI@connection?5reset?$AA@ 000000018002f358     libcpmt:syserror.obj
 0002:00001370       ??_C@_0BN@KDMIFEIP@destination?5address?5required?$AA@ 000000018002f370     libcpmt:syserror.obj
 0002:00001390       ??_C@_0BI@BNCLIGPB@executable?5format?5error?$AA@ 000000018002f390     libcpmt:syserror.obj
 0002:000013a8       ??_C@_0P@DNAJLBJK@file?5too?5large?$AA@ 000000018002f3a8     libcpmt:syserror.obj
 0002:000013b8       ??_C@_0BB@DHFDFGDM@host?5unreachable?$AA@ 000000018002f3b8     libcpmt:syserror.obj
 0002:000013d0       ??_C@_0BD@JPHBMONG@identifier?5removed?$AA@ 000000018002f3d0     libcpmt:syserror.obj
 0002:000013e8       ??_C@_0BG@CDNPAGJK@illegal?5byte?5sequence?$AA@ 000000018002f3e8     libcpmt:syserror.obj
 0002:00001400       ??_C@_0CD@BNPLBMNA@inappropriate?5io?5control?5operati@ 000000018002f400     libcpmt:syserror.obj
 0002:00001428       ??_C@_0N@OHAFKDEK@invalid?5seek?$AA@ 000000018002f428     libcpmt:syserror.obj
 0002:00001438       ??_C@_0P@FLLDBIDK@is?5a?5directory?$AA@ 000000018002f438     libcpmt:syserror.obj
 0002:00001448       ??_C@_0N@IFLPBIOP@message?5size?$AA@ 000000018002f448     libcpmt:syserror.obj
 0002:00001458       ??_C@_0N@KIIEAAIO@network?5down?$AA@ 000000018002f458     libcpmt:syserror.obj
 0002:00001468       ??_C@_0O@FNPDBHEE@network?5reset?$AA@ 000000018002f468     libcpmt:syserror.obj
 0002:00001478       ??_C@_0BE@IFNCKGE@network?5unreachable?$AA@ 000000018002f478     libcpmt:syserror.obj
 0002:00001490       ??_C@_0BA@PFFCAOFK@no?5buffer?5space?$AA@ 000000018002f490     libcpmt:syserror.obj
 0002:000014a0       ??_C@_0BB@IEPBLJHK@no?5child?5process?$AA@ 000000018002f4a0     libcpmt:syserror.obj
 0002:000014b8       ??_C@_07PLECNNKG@no?5link?$AA@ 000000018002f4b8     libcpmt:syserror.obj
 0002:000014c0       ??_C@_0BF@PBGGPKKE@no?5message?5available?$AA@ 000000018002f4c0     libcpmt:syserror.obj
 0002:000014d8       ??_C@_0L@EDOLMPAK@no?5message?$AA@ 000000018002f4d8     libcpmt:syserror.obj
 0002:000014e8       ??_C@_0BD@EAMBFIDF@no?5protocol?5option?$AA@ 000000018002f4e8     libcpmt:syserror.obj
 0002:00001500       ??_C@_0BE@MKFDAFMP@no?5stream?5resources?$AA@ 000000018002f500     libcpmt:syserror.obj
 0002:00001518       ??_C@_0BK@IMCPHCBI@no?5such?5device?5or?5address?$AA@ 000000018002f518     libcpmt:syserror.obj
 0002:00001538       ??_C@_0BA@ENLPPKBN@no?5such?5process?$AA@ 000000018002f538     libcpmt:syserror.obj
 0002:00001548       ??_C@_0BA@DOCPFFJG@not?5a?5directory?$AA@ 000000018002f548     libcpmt:syserror.obj
 0002:00001558       ??_C@_0N@POEIPGGF@not?5a?5socket?$AA@ 000000018002f558     libcpmt:syserror.obj
 0002:00001568       ??_C@_0N@LGAPMMPI@not?5a?5stream?$AA@ 000000018002f568     libcpmt:syserror.obj
 0002:00001578       ??_C@_0O@GLMIBBEG@not?5connected?$AA@ 000000018002f578     libcpmt:syserror.obj
 0002:00001588       ??_C@_0O@NHEDABJP@not?5supported?$AA@ 000000018002f588     libcpmt:syserror.obj
 0002:00001598       ??_C@_0BG@KDKHOPCO@operation?5in?5progress?$AA@ 000000018002f598     libcpmt:syserror.obj
 0002:000015b0       ??_C@_0BI@OHIEJAAB@operation?5not?5permitted?$AA@ 000000018002f5b0     libcpmt:syserror.obj
 0002:000015c8       ??_C@_0BI@LNEGIFLN@operation?5not?5supported?$AA@ 000000018002f5c8     libcpmt:syserror.obj
 0002:000015e0       ??_C@_0BG@OEMDKMEE@operation?5would?5block?$AA@ 000000018002f5e0     libcpmt:syserror.obj
 0002:000015f8       ??_C@_0L@BLPOFLNJ@owner?5dead?$AA@ 000000018002f5f8     libcpmt:syserror.obj
 0002:00001608       ??_C@_0P@FNPOCJBE@protocol?5error?$AA@ 000000018002f608     libcpmt:syserror.obj
 0002:00001618       ??_C@_0BH@JPPPLHJB@protocol?5not?5supported?$AA@ 000000018002f618     libcpmt:syserror.obj
 0002:00001630       ??_C@_0BG@EICBIHDP@read?5only?5file?5system?$AA@ 000000018002f630     libcpmt:syserror.obj
 0002:00001648       ??_C@_0BO@BJBOMOEJ@resource?5deadlock?5would?5occur?$AA@ 000000018002f648     libcpmt:syserror.obj
 0002:00001668       ??_C@_0BE@GOIPJJHG@result?5out?5of?5range?$AA@ 000000018002f668     libcpmt:syserror.obj
 0002:00001680       ??_C@_0BG@MPLKFPAE@state?5not?5recoverable?$AA@ 000000018002f680     libcpmt:syserror.obj
 0002:00001698       ??_C@_0P@DIIFGFCG@stream?5timeout?$AA@ 000000018002f698     libcpmt:syserror.obj
 0002:000016a8       ??_C@_0P@IPFDMIFL@text?5file?5busy?$AA@ 000000018002f6a8     libcpmt:syserror.obj
 0002:000016b8       ??_C@_09KJPPMAOI@timed?5out?$AA@ 000000018002f6b8     libcpmt:syserror.obj
 0002:000016c8       ??_C@_0BO@HACHBEKI@too?5many?5files?5open?5in?5system?$AA@ 000000018002f6c8     libcpmt:syserror.obj
 0002:000016e8       ??_C@_0P@HCOMKFCC@too?5many?5links?$AA@ 000000018002f6e8     libcpmt:syserror.obj
 0002:000016f8       ??_C@_0BO@EFGOJEF@too?5many?5symbolic?5link?5levels?$AA@ 000000018002f6f8     libcpmt:syserror.obj
 0002:00001718       ??_C@_0BA@KGKGOOJA@value?5too?5large?$AA@ 000000018002f718     libcpmt:syserror.obj
 0002:00001728       ??_C@_0BE@MIEJDDNH@wrong?5protocol?5type?$AA@ 000000018002f728     libcpmt:syserror.obj
 0002:00001748       ??_7bad_alloc@std@@6B@     000000018002f748     libcpmt:xthrow.obj
 0002:00001758       ??_C@_0P@GHFPNOJB@bad?5allocation?$AA@ 000000018002f758     libcpmt:xthrow.obj
 0002:00001770       ??_7logic_error@std@@6B@   000000018002f770     libcpmt:xthrow.obj
 0002:00001788       ??_7length_error@std@@6B@  000000018002f788     libcpmt:xthrow.obj
 0002:000017a0       ??_7out_of_range@std@@6B@  000000018002f7a0     libcpmt:xthrow.obj
 0002:000017b0       ??_C@_06MEIMCGCF@_hypot?$AA@ 000000018002f7b0     LIBCMT:hypot.obj
 0002:000017b8       ??_C@_17LGKOMLJ@?$AA?4?$AA?4?$AA?4?$AA?$AA@ 000000018002f7b8     LIBCMT:wassert.obj
 0002:000017c0       ??_C@_13LBAGMAIH@?$AA?6?$AA?$AA@ 000000018002f7c0     LIBCMT:wassert.obj
 0002:000017c4       ??_C@_15IABLJNFO@?$AA?6?$AA?6?$AA?$AA@ 000000018002f7c4     LIBCMT:wassert.obj
 0002:000017d0       ??_C@_1CE@OJBNHDMO@?$AAA?$AAs?$AAs?$AAe?$AAr?$AAt?$AAi?$AAo?$AAn?$AA?5?$AAf?$AAa?$AAi?$AAl?$AAe?$AAd?$AA?$CB?$AA?$AA@ 000000018002f7d0     LIBCMT:wassert.obj
 0002:000017f8       ??_C@_1BE@PHKBBGE@?$AAP?$AAr?$AAo?$AAg?$AAr?$AAa?$AAm?$AA?3?$AA?5?$AA?$AA@ 000000018002f7f8     LIBCMT:wassert.obj
 0002:00001810       ??_C@_1CO@EAEJAADC@?$AA?$DM?$AAp?$AAr?$AAo?$AAg?$AAr?$AAa?$AAm?$AA?5?$AAn?$AAa?$AAm?$AAe?$AA?5?$AAu?$AAn?$AAk?$AAn?$AAo?$AAw?$AAn?$AA?$DO?$AA?$AA@ 000000018002f810     LIBCMT:wassert.obj
 0002:00001840       ??_C@_1O@HEMHKNDC@?$AAF?$AAi?$AAl?$AAe?$AA?3?$AA?5?$AA?$AA@ 000000018002f840     LIBCMT:wassert.obj
 0002:00001850       ??_C@_1O@KCAFKHJE@?$AAL?$AAi?$AAn?$AAe?$AA?3?$AA?5?$AA?$AA@ 000000018002f850     LIBCMT:wassert.obj
 0002:00001860       ??_C@_1BK@PEDCIPMA@?$AAE?$AAx?$AAp?$AAr?$AAe?$AAs?$AAs?$AAi?$AAo?$AAn?$AA?3?$AA?5?$AA?$AA@ 000000018002f860     LIBCMT:wassert.obj
 0002:00001880       ??_C@_1OA@EGMLFBHJ@?$AAF?$AAo?$AAr?$AA?5?$AAi?$AAn?$AAf?$AAo?$AAr?$AAm?$AAa?$AAt?$AAi?$AAo?$AAn?$AA?5?$AAo?$AAn?$AA?5?$AAh?$AAo?$AAw?$AA?5?$AAy?$AAo?$AAu?$AAr?$AA?5?$AAp?$AAr?$AAo?$AAg@ 000000018002f880     LIBCMT:wassert.obj
 0002:00001960       ??_C@_1HK@POCJMFGK@?$AA?$CI?$AAP?$AAr?$AAe?$AAs?$AAs?$AA?5?$AAR?$AAe?$AAt?$AAr?$AAy?$AA?5?$AAt?$AAo?$AA?5?$AAd?$AAe?$AAb?$AAu?$AAg?$AA?5?$AAt?$AAh?$AAe?$AA?5?$AAa?$AAp?$AAp?$AAl?$AAi?$AAc@ 000000018002f960     LIBCMT:wassert.obj
 0002:000019e0       ??_C@_1EK@MBDPDCGA@?$AAM?$AAi?$AAc?$AAr?$AAo?$AAs?$AAo?$AAf?$AAt?$AA?5?$AAV?$AAi?$AAs?$AAu?$AAa?$AAl?$AA?5?$AAC?$AA?$CL?$AA?$CL?$AA?5?$AAR?$AAu?$AAn?$AAt?$AAi?$AAm?$AAe?$AA?5?$AAL?$AAi?$AAb@ 000000018002f9e0     LIBCMT:wassert.obj
 0002:00001a38       ??_7type_info@@6B@         000000018002fa38     LIBCMT:typinfo.obj
 0002:00001a40       _pRawDllMain               000000018002fa40     LIBCMT:dllcrt0.obj
 0002:00001a40       _pDefaultRawDllMain        000000018002fa40     LIBCMT:dllcrt0.obj
 0002:00001b28       _FPinit                    000000018002fb28     LIBCMT:fpinit.obj
 0002:00001b38       ??_7exception@std@@6B@     000000018002fb38     LIBCMT:stdexcpt.obj
 0002:00001b48       ??_C@_0BC@EOODALEL@Unknown?5exception?$AA@ 000000018002fb48     LIBCMT:stdexcpt.obj
 0002:00001b70       ??_C@_1BI@BGOHAHKC@?$AAm?$AAs?$AAc?$AAo?$AAr?$AAe?$AAe?$AA?4?$AAd?$AAl?$AAl?$AA?$AA@ 000000018002fb70     LIBCMT:crt0dat.obj
 0002:00001b88       ??_C@_0P@MIGLKIOC@CorExitProcess?$AA@ 000000018002fb88     LIBCMT:crt0dat.obj
 0002:00001b98       ??_C@_06OJHGLDPL@?$CInull?$CJ?$AA@ 000000018002fb98     LIBCMT:output.obj
 0002:00001ba0       ??_C@_1O@CEDCILHN@?$AA?$CI?$AAn?$AAu?$AAl?$AAl?$AA?$CJ?$AA?$AA@ 000000018002fba0     LIBCMT:output.obj
 0002:00001bb0       __lookuptable              000000018002fbb0     LIBCMT:output.obj
 0002:00001c10       __lookuptable_s            000000018002fc10     LIBCMT:outputs.obj
 0002:00001c70       ??_C@_1BG@GOEBHBDC@?$AAU?$AAS?$AAE?$AAR?$AA3?$AA2?$AA?4?$AAD?$AAL?$AAL?$AA?$AA@ 000000018002fc70     LIBCMT:crtmboxw.obj
 0002:00001c88       ??_C@_0M@DLDCCGNP@MessageBoxW?$AA@ 000000018002fc88     LIBCMT:crtmboxw.obj
 0002:00001c98       ??_C@_0BA@HNOPNCHB@GetActiveWindow?$AA@ 000000018002fc98     LIBCMT:crtmboxw.obj
 0002:00001ca8       ??_C@_0BD@HHGDFDBJ@GetLastActivePopup?$AA@ 000000018002fca8     LIBCMT:crtmboxw.obj
 0002:00001cc0       ??_C@_0BK@DEKFELLI@GetUserObjectInformationW?$AA@ 000000018002fcc0     LIBCMT:crtmboxw.obj
 0002:00001ce0       ??_C@_0BI@DFKBFLJE@GetProcessWindowStation?$AA@ 000000018002fce0     LIBCMT:crtmboxw.obj
 0002:00001e70       ??_C@_1FK@PGACCAFB@?$AAR?$AA6?$AA0?$AA0?$AA2?$AA?$AN?$AA?6?$AA?9?$AA?5?$AAf?$AAl?$AAo?$AAa?$AAt?$AAi?$AAn?$AAg?$AA?5?$AAp?$AAo?$AAi?$AAn?$AAt?$AA?5?$AAs?$AAu?$AAp?$AAp?$AAo?$AAr?$AAt?$AA?5@ 000000018002fe70     LIBCMT:crt0msg.obj
 0002:00001ed0       ??_C@_1FE@LLNEDJMD@?$AAR?$AA6?$AA0?$AA0?$AA8?$AA?$AN?$AA?6?$AA?9?$AA?5?$AAn?$AAo?$AAt?$AA?5?$AAe?$AAn?$AAo?$AAu?$AAg?$AAh?$AA?5?$AAs?$AAp?$AAa?$AAc?$AAe?$AA?5?$AAf?$AAo?$AAr?$AA?5?$AAa?$AAr@ 000000018002fed0     LIBCMT:crt0msg.obj
 0002:00001f30       ??_C@_1FI@HONFMGBI@?$AAR?$AA6?$AA0?$AA0?$AA9?$AA?$AN?$AA?6?$AA?9?$AA?5?$AAn?$AAo?$AAt?$AA?5?$AAe?$AAn?$AAo?$AAu?$AAg?$AAh?$AA?5?$AAs?$AAp?$AAa?$AAc?$AAe?$AA?5?$AAf?$AAo?$AAr?$AA?5?$AAe?$AAn@ 000000018002ff30     LIBCMT:crt0msg.obj
 0002:00001f90       ??_C@_1EG@BEHAGFJD@?$AAR?$AA6?$AA0?$AA1?$AA0?$AA?$AN?$AA?6?$AA?9?$AA?5?$AAa?$AAb?$AAo?$AAr?$AAt?$AA?$CI?$AA?$CJ?$AA?5?$AAh?$AAa?$AAs?$AA?5?$AAb?$AAe?$AAe?$AAn?$AA?5?$AAc?$AAa?$AAl?$AAl?$AAe?$AAd@ 000000018002ff90     LIBCMT:crt0msg.obj
 0002:00001fe0       ??_C@_1FI@LOGNIKDM@?$AAR?$AA6?$AA0?$AA1?$AA6?$AA?$AN?$AA?6?$AA?9?$AA?5?$AAn?$AAo?$AAt?$AA?5?$AAe?$AAn?$AAo?$AAu?$AAg?$AAh?$AA?5?$AAs?$AAp?$AAa?$AAc?$AAe?$AA?5?$AAf?$AAo?$AAr?$AA?5?$AAt?$AAh@ 000000018002ffe0     LIBCMT:crt0msg.obj
 0002:00002040       ??_C@_1FK@BEOGODMC@?$AAR?$AA6?$AA0?$AA1?$AA7?$AA?$AN?$AA?6?$AA?9?$AA?5?$AAu?$AAn?$AAe?$AAx?$AAp?$AAe?$AAc?$AAt?$AAe?$AAd?$AA?5?$AAm?$AAu?$AAl?$AAt?$AAi?$AAt?$AAh?$AAr?$AAe?$AAa?$AAd?$AA?5@ 0000000180030040     LIBCMT:crt0msg.obj
 0002:000020a0       ??_C@_1EC@JIBHAOPH@?$AAR?$AA6?$AA0?$AA1?$AA8?$AA?$AN?$AA?6?$AA?9?$AA?5?$AAu?$AAn?$AAe?$AAx?$AAp?$AAe?$AAc?$AAt?$AAe?$AAd?$AA?5?$AAh?$AAe?$AAa?$AAp?$AA?5?$AAe?$AAr?$AAr?$AAo?$AAr?$AA?$AN?$AA?6@ 00000001800300a0     LIBCMT:crt0msg.obj
 0002:000020f0       ??_C@_1FC@ECHBIFBC@?$AAR?$AA6?$AA0?$AA1?$AA9?$AA?$AN?$AA?6?$AA?9?$AA?5?$AAu?$AAn?$AAa?$AAb?$AAl?$AAe?$AA?5?$AAt?$AAo?$AA?5?$AAo?$AAp?$AAe?$AAn?$AA?5?$AAc?$AAo?$AAn?$AAs?$AAo?$AAl?$AAe?$AA?5@ 00000001800300f0     LIBCMT:crt0msg.obj
 0002:00002150       ??_C@_1GK@FHCKBEFA@?$AAR?$AA6?$AA0?$AA2?$AA4?$AA?$AN?$AA?6?$AA?9?$AA?5?$AAn?$AAo?$AAt?$AA?5?$AAe?$AAn?$AAo?$AAu?$AAg?$AAh?$AA?5?$AAs?$AAp?$AAa?$AAc?$AAe?$AA?5?$AAf?$AAo?$AAr?$AA?5?$AA_?$AAo@ 0000000180030150     LIBCMT:crt0msg.obj
 0002:000021c0       ??_C@_1EM@MAADIHMB@?$AAR?$AA6?$AA0?$AA2?$AA5?$AA?$AN?$AA?6?$AA?9?$AA?5?$AAp?$AAu?$AAr?$AAe?$AA?5?$AAv?$AAi?$AAr?$AAt?$AAu?$AAa?$AAl?$AA?5?$AAf?$AAu?$AAn?$AAc?$AAt?$AAi?$AAo?$AAn?$AA?5?$AAc@ 00000001800301c0     LIBCMT:crt0msg.obj
 0002:00002210       ??_C@_1GK@MCAAGJMO@?$AAR?$AA6?$AA0?$AA2?$AA6?$AA?$AN?$AA?6?$AA?9?$AA?5?$AAn?$AAo?$AAt?$AA?5?$AAe?$AAn?$AAo?$AAu?$AAg?$AAh?$AA?5?$AAs?$AAp?$AAa?$AAc?$AAe?$AA?5?$AAf?$AAo?$AAr?$AA?5?$AAs?$AAt@ 0000000180030210     LIBCMT:crt0msg.obj
 0002:00002280       ??_C@_1GK@MFGOKLAG@?$AAR?$AA6?$AA0?$AA2?$AA7?$AA?$AN?$AA?6?$AA?9?$AA?5?$AAn?$AAo?$AAt?$AA?5?$AAe?$AAn?$AAo?$AAu?$AAg?$AAh?$AA?5?$AAs?$AAp?$AAa?$AAc?$AAe?$AA?5?$AAf?$AAo?$AAr?$AA?5?$AAl?$AAo@ 0000000180030280     LIBCMT:crt0msg.obj
 0002:000022f0       ??_C@_1EK@HHFLMAOL@?$AAR?$AA6?$AA0?$AA2?$AA8?$AA?$AN?$AA?6?$AA?9?$AA?5?$AAu?$AAn?$AAa?$AAb?$AAl?$AAe?$AA?5?$AAt?$AAo?$AA?5?$AAi?$AAn?$AAi?$AAt?$AAi?$AAa?$AAl?$AAi?$AAz?$AAe?$AA?5?$AAh?$AAe@ 00000001800302f0     LIBCMT:crt0msg.obj
 0002:00002340       ??_C@_1DO@BMFCDCD@?$AAR?$AA6?$AA0?$AA3?$AA0?$AA?$AN?$AA?6?$AA?9?$AA?5?$AAC?$AAR?$AAT?$AA?5?$AAn?$AAo?$AAt?$AA?5?$AAi?$AAn?$AAi?$AAt?$AAi?$AAa?$AAl?$AAi?$AAz?$AAe?$AAd?$AA?$AN?$AA?6?$AA?$AA@ 0000000180030340     LIBCMT:crt0msg.obj
 0002:00002380       ??_C@_1MG@ENCOOIDF@?$AAR?$AA6?$AA0?$AA3?$AA1?$AA?$AN?$AA?6?$AA?9?$AA?5?$AAA?$AAt?$AAt?$AAe?$AAm?$AAp?$AAt?$AA?5?$AAt?$AAo?$AA?5?$AAi?$AAn?$AAi?$AAt?$AAi?$AAa?$AAl?$AAi?$AAz?$AAe?$AA?5?$AAt@ 0000000180030380     LIBCMT:crt0msg.obj
 0002:00002450       ??_C@_1GG@GOPILAJP@?$AAR?$AA6?$AA0?$AA3?$AA2?$AA?$AN?$AA?6?$AA?9?$AA?5?$AAn?$AAo?$AAt?$AA?5?$AAe?$AAn?$AAo?$AAu?$AAg?$AAh?$AA?5?$AAs?$AAp?$AAa?$AAc?$AAe?$AA?5?$AAf?$AAo?$AAr?$AA?5?$AAl?$AAo@ 0000000180030450     LIBCMT:crt0msg.obj
 0002:000024c0       ??_C@_1BOO@KGEDBGAJ@?$AAR?$AA6?$AA0?$AA3?$AA3?$AA?$AN?$AA?6?$AA?9?$AA?5?$AAA?$AAt?$AAt?$AAe?$AAm?$AAp?$AAt?$AA?5?$AAt?$AAo?$AA?5?$AAu?$AAs?$AAe?$AA?5?$AAM?$AAS?$AAI?$AAL?$AA?5?$AAc?$AAo?$AAd@ 00000001800304c0     LIBCMT:crt0msg.obj
 0002:000026b0       ??_C@_1GG@MKFPEKFO@?$AAR?$AA6?$AA0?$AA3?$AA4?$AA?$AN?$AA?6?$AA?9?$AA?5?$AAi?$AAn?$AAc?$AAo?$AAn?$AAs?$AAi?$AAs?$AAt?$AAe?$AAn?$AAt?$AA?5?$AAo?$AAn?$AAe?$AAx?$AAi?$AAt?$AA?5?$AAb?$AAe?$AAg@ 00000001800306b0     LIBCMT:crt0msg.obj
 0002:00002718       ??_C@_1BO@BFCDCGC@?$AAD?$AAO?$AAM?$AAA?$AAI?$AAN?$AA?5?$AAe?$AAr?$AAr?$AAo?$AAr?$AA?$AN?$AA?6?$AA?$AA@ 0000000180030718     LIBCMT:crt0msg.obj
 0002:00002738       ??_C@_1BK@KMOMNAAI@?$AAS?$AAI?$AAN?$AAG?$AA?5?$AAe?$AAr?$AAr?$AAo?$AAr?$AA?$AN?$AA?6?$AA?$AA@ 0000000180030738     LIBCMT:crt0msg.obj
 0002:00002758       ??_C@_1BM@JBBEPPHI@?$AAT?$AAL?$AAO?$AAS?$AAS?$AA?5?$AAe?$AAr?$AAr?$AAo?$AAr?$AA?$AN?$AA?6?$AA?$AA@ 0000000180030758     LIBCMT:crt0msg.obj
 0002:00002774       ??_C@_15JNBOKNOG@?$AA?$AN?$AA?6?$AA?$AA@ 0000000180030774     LIBCMT:crt0msg.obj
 0002:00002780       ??_C@_1BO@BKOMIGKJ@?$AAr?$AAu?$AAn?$AAt?$AAi?$AAm?$AAe?$AA?5?$AAe?$AAr?$AAr?$AAo?$AAr?$AA?5?$AA?$AA@ 0000000180030780     LIBCMT:crt0msg.obj
 0002:000027a0       ??_C@_1DE@JNGNBFGO@?$AAR?$AAu?$AAn?$AAt?$AAi?$AAm?$AAe?$AA?5?$AAE?$AAr?$AAr?$AAo?$AAr?$AA?$CB?$AA?6?$AA?6?$AAP?$AAr?$AAo?$AAg?$AAr?$AAa?$AAm?$AA?3?$AA?5?$AA?$AA@ 00000001800307a0     LIBCMT:crt0msg.obj
 0002:00002820       ??_C@_1M@HPNHIDJI@?$AAj?$AAa?$AA?9?$AAJ?$AAP?$AA?$AA@ 0000000180030820     LIBCMT:mbctype.obj
 0002:00002830       ??_C@_1M@BIBDDEMK@?$AAz?$AAh?$AA?9?$AAC?$AAN?$AA?$AA@ 0000000180030830     LIBCMT:mbctype.obj
 0002:00002840       ??_C@_1M@JLOOOEGK@?$AAk?$AAo?$AA?9?$AAK?$AAR?$AA?$AA@ 0000000180030840     LIBCMT:mbctype.obj
 0002:00002850       ??_C@_1M@CLNBBOPM@?$AAz?$AAh?$AA?9?$AAT?$AAW?$AA?$AA@ 0000000180030850     LIBCMT:mbctype.obj
 0002:0000285c       ??_C@_03KOEHGMDN@Sun?$AA@  000000018003085c     LIBCMT:nlsdata.obj
 0002:00002860       ??_C@_03PDAGKDH@Mon?$AA@   0000000180030860     LIBCMT:nlsdata.obj
 0002:00002864       ??_C@_03NAGEINEP@Tue?$AA@  0000000180030864     LIBCMT:nlsdata.obj
 0002:00002868       ??_C@_03MHOMLAJA@Wed?$AA@  0000000180030868     LIBCMT:nlsdata.obj
 0002:0000286c       ??_C@_03IOFIKPDN@Thu?$AA@  000000018003086c     LIBCMT:nlsdata.obj
 0002:00002870       ??_C@_03IDIOELNC@Fri?$AA@  0000000180030870     LIBCMT:nlsdata.obj
 0002:00002874       ??_C@_03FEFJNEK@Sat?$AA@   0000000180030874     LIBCMT:nlsdata.obj
 0002:00002878       ??_C@_06OOPIFAJ@Sunday?$AA@ 0000000180030878     LIBCMT:nlsdata.obj
 0002:00002880       ??_C@_06JLEDEDGH@Monday?$AA@ 0000000180030880     LIBCMT:nlsdata.obj
 0002:00002888       ??_C@_07BAAGCFCM@Tuesday?$AA@ 0000000180030888     LIBCMT:nlsdata.obj
 0002:00002890       ??_C@_09DLIGFAKA@Wednesday?$AA@ 0000000180030890     LIBCMT:nlsdata.obj
 0002:000028a0       ??_C@_08HACCIKIA@Thursday?$AA@ 00000001800308a0     LIBCMT:nlsdata.obj
 0002:000028ac       ??_C@_06JECMNKMI@Friday?$AA@ 00000001800308ac     LIBCMT:nlsdata.obj
 0002:000028b8       ??_C@_08INBOOONO@Saturday?$AA@ 00000001800308b8     LIBCMT:nlsdata.obj
 0002:000028c4       ??_C@_03JIHJHPIE@Jan?$AA@  00000001800308c4     LIBCMT:nlsdata.obj
 0002:000028c8       ??_C@_03HJBDCHOM@Feb?$AA@  00000001800308c8     LIBCMT:nlsdata.obj
 0002:000028cc       ??_C@_03ODNJBKGA@Mar?$AA@  00000001800308cc     LIBCMT:nlsdata.obj
 0002:000028d0       ??_C@_03LEOLGMJP@Apr?$AA@  00000001800308d0     LIBCMT:nlsdata.obj
 0002:000028d4       ??_C@_03CNMDKL@May?$AA@    00000001800308d4     LIBCMT:nlsdata.obj
 0002:000028d8       ??_C@_03IDFGHECI@Jun?$AA@  00000001800308d8     LIBCMT:nlsdata.obj
 0002:000028dc       ??_C@_03LBGABGKK@Jul?$AA@  00000001800308dc     LIBCMT:nlsdata.obj
 0002:000028e0       ??_C@_03IFJFEIGA@Aug?$AA@  00000001800308e0     LIBCMT:nlsdata.obj
 0002:000028e4       ??_C@_03GGCAPAJC@Sep?$AA@  00000001800308e4     LIBCMT:nlsdata.obj
 0002:000028e8       ??_C@_03BMAOKBAD@Oct?$AA@  00000001800308e8     LIBCMT:nlsdata.obj
 0002:000028ec       ??_C@_03JPJOFNIA@Nov?$AA@  00000001800308ec     LIBCMT:nlsdata.obj
 0002:000028f0       ??_C@_03MKABNOCG@Dec?$AA@  00000001800308f0     LIBCMT:nlsdata.obj
 0002:000028f8       ??_C@_07CGJPFGJA@January?$AA@ 00000001800308f8     LIBCMT:nlsdata.obj
 0002:00002900       ??_C@_08GNJGEPFN@February?$AA@ 0000000180030900     LIBCMT:nlsdata.obj
 0002:0000290c       ??_C@_05HPCKOFNC@March?$AA@ 000000018003090c     LIBCMT:nlsdata.obj
 0002:00002914       ??_C@_05DMJDNLEJ@April?$AA@ 0000000180030914     LIBCMT:nlsdata.obj
 0002:0000291c       ??_C@_04CNLMGBGM@June?$AA@ 000000018003091c     LIBCMT:nlsdata.obj
 0002:00002924       ??_C@_04MIEPOIFP@July?$AA@ 0000000180030924     LIBCMT:nlsdata.obj
 0002:0000292c       ??_C@_06LBBHFDDG@August?$AA@ 000000018003092c     LIBCMT:nlsdata.obj
 0002:00002938       ??_C@_09BHHEALKD@September?$AA@ 0000000180030938     LIBCMT:nlsdata.obj
 0002:00002948       ??_C@_07JJNFCEND@October?$AA@ 0000000180030948     LIBCMT:nlsdata.obj
 0002:00002950       ??_C@_08HCHEGEOA@November?$AA@ 0000000180030950     LIBCMT:nlsdata.obj
 0002:00002960       ??_C@_08EDHMEBNP@December?$AA@ 0000000180030960     LIBCMT:nlsdata.obj
 0002:0000296c       ??_C@_02DEDBPAFC@AM?$AA@   000000018003096c     LIBCMT:nlsdata.obj
 0002:00002970       ??_C@_02CJNFDJBF@PM?$AA@   0000000180030970     LIBCMT:nlsdata.obj
 0002:00002978       ??_C@_08BPBNCDIB@MM?1dd?1yy?$AA@ 0000000180030978     LIBCMT:nlsdata.obj
 0002:00002988       ??_C@_0BE@CKGJFCPC@dddd?0?5MMMM?5dd?0?5yyyy?$AA@ 0000000180030988     LIBCMT:nlsdata.obj
 0002:000029a0       ??_C@_08JCCMCCIL@HH?3mm?3ss?$AA@ 00000001800309a0     LIBCMT:nlsdata.obj
 0002:000029b0       ??_C@_17MBGCMIPB@?$AAS?$AAu?$AAn?$AA?$AA@ 00000001800309b0     LIBCMT:nlsdata.obj
 0002:000029b8       ??_C@_17KBOMKBF@?$AAM?$AAo?$AAn?$AA?$AA@ 00000001800309b8     LIBCMT:nlsdata.obj
 0002:000029c0       ??_C@_17BMKGEGOJ@?$AAT?$AAu?$AAe?$AA?$AA@ 00000001800309c0     LIBCMT:nlsdata.obj
 0002:000029c8       ??_C@_17CJEDCEPE@?$AAW?$AAe?$AAd?$AA?$AA@ 00000001800309c8     LIBCMT:nlsdata.obj
 0002:000029d0       ??_C@_17PDPHAADD@?$AAT?$AAh?$AAu?$AA?$AA@ 00000001800309d0     LIBCMT:nlsdata.obj
 0002:000029d8       ??_C@_17HFOLPPLP@?$AAF?$AAr?$AAi?$AA?$AA@ 00000001800309d8     LIBCMT:nlsdata.obj
 0002:000029e0       ??_C@_17GGIBDPIH@?$AAS?$AAa?$AAt?$AA?$AA@ 00000001800309e0     LIBCMT:nlsdata.obj
 0002:000029e8       ??_C@_1O@IHNHDHPB@?$AAS?$AAu?$AAn?$AAd?$AAa?$AAy?$AA?$AA@ 00000001800309e8     LIBCMT:nlsdata.obj
 0002:000029f8       ??_C@_1O@MMNBFLIA@?$AAM?$AAo?$AAn?$AAd?$AAa?$AAy?$AA?$AA@ 00000001800309f8     LIBCMT:nlsdata.obj
 0002:00002a08       ??_C@_1BA@ENFBFFEK@?$AAT?$AAu?$AAe?$AAs?$AAd?$AAa?$AAy?$AA?$AA@ 0000000180030a08     LIBCMT:nlsdata.obj
 0002:00002a18       ??_C@_1BE@EBOGMDOH@?$AAW?$AAe?$AAd?$AAn?$AAe?$AAs?$AAd?$AAa?$AAy?$AA?$AA@ 0000000180030a18     LIBCMT:nlsdata.obj
 0002:00002a30       ??_C@_1BC@HHMNLIHE@?$AAT?$AAh?$AAu?$AAr?$AAs?$AAd?$AAa?$AAy?$AA?$AA@ 0000000180030a30     LIBCMT:nlsdata.obj
 0002:00002a48       ??_C@_1O@PDICJHAG@?$AAF?$AAr?$AAi?$AAd?$AAa?$AAy?$AA?$AA@ 0000000180030a48     LIBCMT:nlsdata.obj
 0002:00002a58       ??_C@_1BC@ENMNNPAJ@?$AAS?$AAa?$AAt?$AAu?$AAr?$AAd?$AAa?$AAy?$AA?$AA@ 0000000180030a58     LIBCMT:nlsdata.obj
 0002:00002a70       ??_C@_17DKNBKCHM@?$AAJ?$AAa?$AAn?$AA?$AA@ 0000000180030a70     LIBCMT:nlsdata.obj
 0002:00002a78       ??_C@_17LMDJEKJN@?$AAF?$AAe?$AAb?$AA?$AA@ 0000000180030a78     LIBCMT:nlsdata.obj
 0002:00002a80       ??_C@_17CKNLEDEC@?$AAM?$AAa?$AAr?$AA?$AA@ 0000000180030a80     LIBCMT:nlsdata.obj
 0002:00002a88       ??_C@_17LFPOIHDD@?$AAA?$AAp?$AAr?$AA?$AA@ 0000000180030a88     LIBCMT:nlsdata.obj
 0002:00002a90       ??_C@_17PNNKMEED@?$AAM?$AAa?$AAy?$AA?$AA@ 0000000180030a90     LIBCMT:nlsdata.obj
 0002:00002a98       ??_C@_17KCJGOCPB@?$AAJ?$AAu?$AAn?$AA?$AA@ 0000000180030a98     LIBCMT:nlsdata.obj
 0002:00002aa0       ??_C@_17IJPCKHK@?$AAJ?$AAu?$AAl?$AA?$AA@ 0000000180030aa0     LIBCMT:nlsdata.obj
 0002:00002aa8       ??_C@_17ICPELBCN@?$AAA?$AAu?$AAg?$AA?$AA@ 0000000180030aa8     LIBCMT:nlsdata.obj
 0002:00002ab0       ??_C@_17HCHCOKMG@?$AAS?$AAe?$AAp?$AA?$AA@ 0000000180030ab0     LIBCMT:nlsdata.obj
 0002:00002ab8       ??_C@_17FNLKOI@?$AAO?$AAc?$AAt?$AA?$AA@ 0000000180030ab8     LIBCMT:nlsdata.obj
 0002:00002ac0       ??_C@_17BBDMLCIG@?$AAN?$AAo?$AAv?$AA?$AA@ 0000000180030ac0     LIBCMT:nlsdata.obj
 0002:00002ac8       ??_C@_17EGKACKIF@?$AAD?$AAe?$AAc?$AA?$AA@ 0000000180030ac8     LIBCMT:nlsdata.obj
 0002:00002ad0       ??_C@_1BA@EFMEIEBA@?$AAJ?$AAa?$AAn?$AAu?$AAa?$AAr?$AAy?$AA?$AA@ 0000000180030ad0     LIBCMT:nlsdata.obj
 0002:00002ae0       ??_C@_1BC@JGDDFFAM@?$AAF?$AAe?$AAb?$AAr?$AAu?$AAa?$AAr?$AAy?$AA?$AA@ 0000000180030ae0     LIBCMT:nlsdata.obj
 0002:00002af8       ??_C@_1M@IKEENEDF@?$AAM?$AAa?$AAr?$AAc?$AAh?$AA?$AA@ 0000000180030af8     LIBCMT:nlsdata.obj
 0002:00002b08       ??_C@_1M@GJNLMHFD@?$AAA?$AAp?$AAr?$AAi?$AAl?$AA?$AA@ 0000000180030b08     LIBCMT:nlsdata.obj
 0002:00002b18       ??_C@_19EPFLPGAP@?$AAJ?$AAu?$AAn?$AAe?$AA?$AA@ 0000000180030b18     LIBCMT:nlsdata.obj
 0002:00002b28       ??_C@_19BIFMLPCD@?$AAJ?$AAu?$AAl?$AAy?$AA?$AA@ 0000000180030b28     LIBCMT:nlsdata.obj
 0002:00002b38       ??_C@_1O@PAHLKOAC@?$AAA?$AAu?$AAg?$AAu?$AAs?$AAt?$AA?$AA@ 0000000180030b38     LIBCMT:nlsdata.obj
 0002:00002b48       ??_C@_1BE@DKAAMBJL@?$AAS?$AAe?$AAp?$AAt?$AAe?$AAm?$AAb?$AAe?$AAr?$AA?$AA@ 0000000180030b48     LIBCMT:nlsdata.obj
 0002:00002b60       ??_C@_1BA@EPANDLNG@?$AAO?$AAc?$AAt?$AAo?$AAb?$AAe?$AAr?$AA?$AA@ 0000000180030b60     LIBCMT:nlsdata.obj
 0002:00002b70       ??_C@_1BC@BGLIFPF@?$AAN?$AAo?$AAv?$AAe?$AAm?$AAb?$AAe?$AAr?$AA?$AA@ 0000000180030b70     LIBCMT:nlsdata.obj
 0002:00002b88       ??_C@_1BC@FEMKIFH@?$AAD?$AAe?$AAc?$AAe?$AAm?$AAb?$AAe?$AAr?$AA?$AA@ 0000000180030b88     LIBCMT:nlsdata.obj
 0002:00002b9c       ??_C@_15ODEHAHHF@?$AAA?$AAM?$AA?$AA@ 0000000180030b9c     LIBCMT:nlsdata.obj
 0002:00002ba4       ??_C@_15CLMNNGEL@?$AAP?$AAM?$AA?$AA@ 0000000180030ba4     LIBCMT:nlsdata.obj
 0002:00002bb0       ??_C@_1BC@IEBCMHCM@?$AAM?$AAM?$AA?1?$AAd?$AAd?$AA?1?$AAy?$AAy?$AA?$AA@ 0000000180030bb0     LIBCMT:nlsdata.obj
 0002:00002bc8       ??_C@_1CI@KNAKOEBC@?$AAd?$AAd?$AAd?$AAd?$AA?0?$AA?5?$AAM?$AAM?$AAM?$AAM?$AA?5?$AAd?$AAd?$AA?0?$AA?5?$AAy?$AAy?$AAy?$AAy?$AA?$AA@ 0000000180030bc8     LIBCMT:nlsdata.obj
 0002:00002bf0       ??_C@_1BC@GDGBMEMK@?$AAH?$AAH?$AA?3?$AAm?$AAm?$AA?3?$AAs?$AAs?$AA?$AA@ 0000000180030bf0     LIBCMT:nlsdata.obj
 0002:00002c08       ??_C@_1M@BMHNFIME@?$AAe?$AAn?$AA?9?$AAU?$AAS?$AA?$AA@ 0000000180030c08     LIBCMT:nlsdata.obj
 0002:00002ca0       _XcptActTab                0000000180030ca0     LIBCMT:winxfltr.obj
 0002:00002d60       _XcptActTabCount           0000000180030d60     LIBCMT:winxfltr.obj
 0002:00002d64       _XcptActTabSize            0000000180030d64     LIBCMT:winxfltr.obj
 0002:00002d68       _First_FPE_Indx            0000000180030d68     LIBCMT:winxfltr.obj
 0002:00002d6c       _Num_FPE                   0000000180030d6c     LIBCMT:winxfltr.obj
 0002:00002d70       ??_C@_1BK@MGMFAEKH@?$AAk?$AAe?$AAr?$AAn?$AAe?$AAl?$AA3?$AA2?$AA?4?$AAd?$AAl?$AAl?$AA?$AA@ 0000000180030d70     LIBCMT:winapisupp.obj
 0002:00002d90       ??_C@_08KNHFBNJ@FlsAlloc?$AA@ 0000000180030d90     LIBCMT:winapisupp.obj
 0002:00002da0       ??_C@_07PEJMOBNF@FlsFree?$AA@ 0000000180030da0     LIBCMT:winapisupp.obj
 0002:00002da8       ??_C@_0M@GDNOONDI@FlsGetValue?$AA@ 0000000180030da8     LIBCMT:winapisupp.obj
 0002:00002db8       ??_C@_0M@JCPCPOEF@FlsSetValue?$AA@ 0000000180030db8     LIBCMT:winapisupp.obj
 0002:00002dc8       ??_C@_0BM@HCFOFFN@InitializeCriticalSectionEx?$AA@ 0000000180030dc8     LIBCMT:winapisupp.obj
 0002:00002de8       ??_C@_0P@DLHPPCNH@CreateEventExW?$AA@ 0000000180030de8     LIBCMT:winapisupp.obj
 0002:00002df8       ??_C@_0BD@KIEEOEEH@CreateSemaphoreExW?$AA@ 0000000180030df8     LIBCMT:winapisupp.obj
 0002:00002e10       ??_C@_0BI@BKLFFAPO@SetThreadStackGuarantee?$AA@ 0000000180030e10     LIBCMT:winapisupp.obj
 0002:00002e28       ??_C@_0BG@OGFAJCKC@CreateThreadpoolTimer?$AA@ 0000000180030e28     LIBCMT:winapisupp.obj
 0002:00002e40       ??_C@_0BD@LPLEMMDI@SetThreadpoolTimer?$AA@ 0000000180030e40     LIBCMT:winapisupp.obj
 0002:00002e58       ??_C@_0CA@FMNJENH@WaitForThreadpoolTimerCallbacks?$AA@ 0000000180030e58     LIBCMT:winapisupp.obj
 0002:00002e78       ??_C@_0BF@DCFCCNOC@CloseThreadpoolTimer?$AA@ 0000000180030e78     LIBCMT:winapisupp.obj
 0002:00002e90       ??_C@_0BF@FLABGKKM@CreateThreadpoolWait?$AA@ 0000000180030e90     LIBCMT:winapisupp.obj
 0002:00002ea8       ??_C@_0BC@MGCOHNA@SetThreadpoolWait?$AA@ 0000000180030ea8     LIBCMT:winapisupp.obj
 0002:00002ec0       ??_C@_0BE@OCIOMIMP@CloseThreadpoolWait?$AA@ 0000000180030ec0     LIBCMT:winapisupp.obj
 0002:00002ed8       ??_C@_0BJ@LKGHFHBO@FlushProcessWriteBuffers?$AA@ 0000000180030ed8     LIBCMT:winapisupp.obj
 0002:00002ef8       ??_C@_0BP@KALKKPMO@FreeLibraryWhenCallbackReturns?$AA@ 0000000180030ef8     LIBCMT:winapisupp.obj
 0002:00002f18       ??_C@_0BK@DFNBACLA@GetCurrentProcessorNumber?$AA@ 0000000180030f18     LIBCMT:winapisupp.obj
 0002:00002f38       ??_C@_0BP@KHGALBC@GetLogicalProcessorInformation?$AA@ 0000000180030f38     LIBCMT:winapisupp.obj
 0002:00002f58       ??_C@_0BE@FKKLLFLM@CreateSymbolicLinkW?$AA@ 0000000180030f58     LIBCMT:winapisupp.obj
 0002:00002f70       ??_C@_0BJ@OHNKDLIJ@SetDefaultDllDirectories?$AA@ 0000000180030f70     LIBCMT:winapisupp.obj
 0002:00002f90       ??_C@_0BE@LJANKFHF@EnumSystemLocalesEx?$AA@ 0000000180030f90     LIBCMT:winapisupp.obj
 0002:00002fa8       ??_C@_0BA@IHGNDAEB@CompareStringEx?$AA@ 0000000180030fa8     LIBCMT:winapisupp.obj
 0002:00002fb8       ??_C@_0BA@EPCJIIPD@GetDateFormatEx?$AA@ 0000000180030fb8     LIBCMT:winapisupp.obj
 0002:00002fc8       ??_C@_0BA@ONOKGCMP@GetLocaleInfoEx?$AA@ 0000000180030fc8     LIBCMT:winapisupp.obj
 0002:00002fd8       ??_C@_0BA@CIJJKCJJ@GetTimeFormatEx?$AA@ 0000000180030fd8     LIBCMT:winapisupp.obj
 0002:00002fe8       ??_C@_0BJ@PBCCBIPI@GetUserDefaultLocaleName?$AA@ 0000000180030fe8     LIBCMT:winapisupp.obj
 0002:00003008       ??_C@_0BC@CELBKLLA@IsValidLocaleName?$AA@ 0000000180031008     LIBCMT:winapisupp.obj
 0002:00003020       ??_C@_0O@KKBNKAPF@LCMapStringEx?$AA@ 0000000180031020     LIBCMT:winapisupp.obj
 0002:00003030       ??_C@_0BE@JOGNEJCI@GetCurrentPackageId?$AA@ 0000000180031030     LIBCMT:winapisupp.obj
 0002:00003048       ??_C@_0P@CDHHOHKP@GetTickCount64?$AA@ 0000000180031048     LIBCMT:winapisupp.obj
 0002:00003058       ??_C@_0BO@KPCLFDJJ@GetFileInformationByHandleExW?$AA@ 0000000180031058     LIBCMT:winapisupp.obj
 0002:00003078       ??_C@_0BM@MHIDLABK@SetFileInformationByHandleW?$AA@ 0000000180031078     LIBCMT:winapisupp.obj
 0002:00003098       _pDestructExceptionObject  0000000180031098     LIBCMT:frame.obj
 0002:000030a8       ??_7bad_exception@std@@6B@ 00000001800310a8     LIBCMT:frame.obj
 0002:000030b8       ??_C@_0O@DPKOEFFH@bad?5exception?$AA@ 00000001800310b8     LIBCMT:frame.obj
 0002:000030c8       ??_C@_05KLBDPFGC@e?$CL000?$AA@ 00000001800310c8     LIBCMT:cvt.obj
 0002:000030d0       __real@0000000000000000    00000001800310d0     LIBCMT:cvt.obj
 0002:000030e0       LcidToLocaleNameTable      00000001800310e0     LIBCMT:winapinls.obj
 0002:00003f20       LocaleNameToIndexTable     0000000180031f20     LIBCMT:winapinls.obj
 0002:00004d60       ??_C@_15EMKDOKLE@?$AAa?$AAr?$AA?$AA@ 0000000180032d60     LIBCMT:winapinls.obj
 0002:00004d68       ??_C@_15KNPADPLH@?$AAb?$AAg?$AA?$AA@ 0000000180032d68     LIBCMT:winapinls.obj
 0002:00004d70       ??_C@_15EDMHLDMO@?$AAc?$AAa?$AA?$AA@ 0000000180032d70     LIBCMT:winapinls.obj
 0002:00004d78       ??_C@_1O@BPEAJADD@?$AAz?$AAh?$AA?9?$AAC?$AAH?$AAS?$AA?$AA@ 0000000180032d78     LIBCMT:winapinls.obj
 0002:00004d88       ??_C@_15LJNHCMNK@?$AAc?$AAs?$AA?$AA@ 0000000180032d88     LIBCMT:winapinls.obj
 0002:00004d90       ??_C@_15FOMCIDHG@?$AAd?$AAa?$AA?$AA@ 0000000180032d90     LIBCMT:winapinls.obj
 0002:00004d98       ??_C@_15NBKABECB@?$AAd?$AAe?$AA?$AA@ 0000000180032d98     LIBCMT:winapinls.obj
 0002:00004da0       ??_C@_15GHPEIIAO@?$AAe?$AAl?$AA?$AA@ 0000000180032da0     LIBCMT:winapinls.obj
 0002:00004da8       ??_C@_15MNPNEAIF@?$AAe?$AAn?$AA?$AA@ 0000000180032da8     LIBCMT:winapinls.obj
 0002:00004db0       ??_C@_15GPIOMPMH@?$AAe?$AAs?$AA?$AA@ 0000000180032db0     LIBCMT:winapinls.obj
 0002:00004db8       ??_C@_15NGLOAKJC@?$AAf?$AAi?$AA?$AA@ 0000000180032db8     LIBCMT:winapinls.obj
 0002:00004dc0       ??_C@_15FBKGNKAM@?$AAf?$AAr?$AA?$AA@ 0000000180032dc0     LIBCMT:winapinls.obj
 0002:00004dc8       ??_C@_15KGGCNEFK@?$AAh?$AAe?$AA?$AA@ 0000000180032dc8     LIBCMT:winapinls.obj
 0002:00004dd0       ??_C@_15PGHLIDMF@?$AAh?$AAu?$AA?$AA@ 0000000180032dd0     LIBCMT:winapinls.obj
 0002:00004dd8       ??_C@_15BIEMAPLM@?$AAi?$AAs?$AA?$AA@ 0000000180032dd8     LIBCMT:winapinls.obj
 0002:00004de0       ??_C@_15IFJLDHAF@?$AAi?$AAt?$AA?$AA@ 0000000180032de0     LIBCMT:winapinls.obj
 0002:00004de8       ??_C@_15GEMIOCAG@?$AAj?$AAa?$AA?$AA@ 0000000180032de8     LIBCMT:winapinls.obj
 0002:00004df0       ??_C@_15EPELEGJA@?$AAk?$AAo?$AA?$AA@ 0000000180032df0     LIBCMT:winapinls.obj
 0002:00004df8       ??_C@_15NDDHIMN@?$AAn?$AAl?$AA?$AA@ 0000000180032df8     LIBCMT:winapinls.obj
 0002:00004e00       ??_C@_15BPIGNHCD@?$AAn?$AAo?$AA?$AA@ 0000000180032e00     LIBCMT:winapinls.obj
 0002:00004e08       ??_C@_15DEOPBLCG@?$AAp?$AAl?$AA?$AA@ 0000000180032e08     LIBCMT:winapinls.obj
 0002:00004e10       ??_C@_15KBECGEFG@?$AAp?$AAt?$AA?$AA@ 0000000180032e10     LIBCMT:winapinls.obj
 0002:00004e18       ??_C@_15GLJCBFMD@?$AAr?$AAo?$AA?$AA@ 0000000180032e18     LIBCMT:winapinls.obj
 0002:00004e20       ??_C@_15FEDGKCDI@?$AAr?$AAu?$AA?$AA@ 0000000180032e20     LIBCMT:winapinls.obj
 0002:00004e28       ??_C@_15GLKMLLHM@?$AAh?$AAr?$AA?$AA@ 0000000180032e28     LIBCMT:winapinls.obj
 0002:00004e30       ??_C@_15CPKMFBDB@?$AAs?$AAk?$AA?$AA@ 0000000180032e30     LIBCMT:winapinls.obj
 0002:00004e38       ??_C@_15BAAIOGMK@?$AAs?$AAq?$AA?$AA@ 0000000180032e38     LIBCMT:winapinls.obj
 0002:00004e40       ??_C@_15INNPNOHD@?$AAs?$AAv?$AA?$AA@ 0000000180032e40     LIBCMT:winapinls.obj
 0002:00004e48       ??_C@_15CABMMOGH@?$AAt?$AAh?$AA?$AA@ 0000000180032e48     LIBCMT:winapinls.obj
 0002:00004e50       ??_C@_15BPLIHJJM@?$AAt?$AAr?$AA?$AA@ 0000000180032e50     LIBCMT:winapinls.obj
 0002:00004e58       ??_C@_15NEOEKKDJ@?$AAu?$AAr?$AA?$AA@ 0000000180032e58     LIBCMT:winapinls.obj
 0002:00004e60       ??_C@_15NFICGAJK@?$AAi?$AAd?$AA?$AA@ 0000000180032e60     LIBCMT:winapinls.obj
 0002:00004e68       ??_C@_15PJPFLCCM@?$AAu?$AAk?$AA?$AA@ 0000000180032e68     LIBCMT:winapinls.obj
 0002:00004e70       ??_C@_15HPJPHDM@?$AAb?$AAe?$AA?$AA@ 0000000180032e70     LIBCMT:winapinls.obj
 0002:00004e78       ??_C@_15LCHLGJII@?$AAs?$AAl?$AA?$AA@ 0000000180032e78     LIBCMT:winapinls.obj
 0002:00004e80       ??_C@_15PCFJPHHO@?$AAe?$AAt?$AA?$AA@ 0000000180032e80     LIBCMT:winapinls.obj
 0002:00004e88       ??_C@_15HPFPGODN@?$AAl?$AAv?$AA?$AA@ 0000000180032e88     LIBCMT:winapinls.obj
 0002:00004e90       ??_C@_15NFFGKGLG@?$AAl?$AAt?$AA?$AA@ 0000000180032e90     LIBCMT:winapinls.obj
 0002:00004e98       ??_C@_15BDAKCCHN@?$AAf?$AAa?$AA?$AA@ 0000000180032e98     LIBCMT:winapinls.obj
 0002:00004ea0       ??_C@_15NFGIAIAJ@?$AAv?$AAi?$AA?$AA@ 0000000180032ea0     LIBCMT:winapinls.obj
 0002:00004ea8       ??_C@_15LMKNDMHN@?$AAh?$AAy?$AA?$AA@ 0000000180032ea8     LIBCMT:winapinls.obj
 0002:00004eb0       ??_C@_15IJBHMCFL@?$AAa?$AAz?$AA?$AA@ 0000000180032eb0     LIBCMT:winapinls.obj
 0002:00004eb8       ??_C@_15EKOFJABL@?$AAe?$AAu?$AA?$AA@ 0000000180032eb8     LIBCMT:winapinls.obj
 0002:00004ec0       ??_C@_15BGHADCNK@?$AAm?$AAk?$AA?$AA@ 0000000180032ec0     LIBCMT:winapinls.obj
 0002:00004ec8       ??_C@_15JDNICKHM@?$AAa?$AAf?$AA?$AA@ 0000000180032ec8     LIBCMT:winapinls.obj
 0002:00004ed0       ??_C@_15KPJEDBKD@?$AAk?$AAa?$AA?$AA@ 0000000180032ed0     LIBCMT:winapinls.obj
 0002:00004ed8       ??_C@_15PDNFFFEO@?$AAf?$AAo?$AA?$AA@ 0000000180032ed8     LIBCMT:winapinls.obj
 0002:00004ee0       ??_C@_15OMLEGLOC@?$AAh?$AAi?$AA?$AA@ 0000000180032ee0     LIBCMT:winapinls.obj
 0002:00004ee8       ??_C@_15IDNNENKK@?$AAm?$AAs?$AA?$AA@ 0000000180032ee8     LIBCMT:winapinls.obj
 0002:00004ef0       ??_C@_15MACJNBMH@?$AAk?$AAk?$AA?$AA@ 0000000180032ef0     LIBCMT:winapinls.obj
 0002:00004ef8       ??_C@_15DKDJEOND@?$AAk?$AAy?$AA?$AA@ 0000000180032ef8     LIBCMT:winapinls.obj
 0002:00004f00       ??_C@_15DFGDLJBG@?$AAs?$AAw?$AA?$AA@ 0000000180032f00     LIBCMT:winapinls.obj
 0002:00004f08       ??_C@_15BBFAICNG@?$AAu?$AAz?$AA?$AA@ 0000000180032f08     LIBCMT:winapinls.obj
 0002:00004f10       ??_C@_15DKNDCGEA@?$AAt?$AAt?$AA?$AA@ 0000000180032f10     LIBCMT:winapinls.obj
 0002:00004f18       ??_C@_15MGIFMDPL@?$AAp?$AAa?$AA?$AA@ 0000000180032f18     LIBCMT:winapinls.obj
 0002:00004f20       ??_C@_15HCNDBBA@?$AAg?$AAu?$AA?$AA@ 0000000180032f20     LIBCMT:winapinls.obj
 0002:00004f28       ??_C@_15FNBEIBON@?$AAt?$AAa?$AA?$AA@ 0000000180032f28     LIBCMT:winapinls.obj
 0002:00004f30       ??_C@_15NCHGBGLK@?$AAt?$AAe?$AA?$AA@ 0000000180032f30     LIBCMT:winapinls.obj
 0002:00004f38       ??_C@_15PHPHCBPF@?$AAk?$AAn?$AA?$AA@ 0000000180032f38     LIBCMT:winapinls.obj
 0002:00004f40       ??_C@_15DLGBCKMP@?$AAm?$AAr?$AA?$AA@ 0000000180032f40     LIBCMT:winapinls.obj
 0002:00004f48       ??_C@_15EABBLBFF@?$AAs?$AAa?$AA?$AA@ 0000000180032f48     LIBCMT:winapinls.obj
 0002:00004f50       ??_C@_15CBKOMCOI@?$AAm?$AAn?$AA?$AA@ 0000000180032f50     LIBCMT:winapinls.obj
 0002:00004f58       ??_C@_15CKDMCJAF@?$AAg?$AAl?$AA?$AA@ 0000000180032f58     LIBCMT:winapinls.obj
 0002:00004f60       ??_C@_17CNJFBPG@?$AAk?$AAo?$AAk?$AA?$AA@ 0000000180032f60     LIBCMT:winapinls.obj
 0002:00004f68       ??_C@_17FFBJICPL@?$AAs?$AAy?$AAr?$AA?$AA@ 0000000180032f68     LIBCMT:winapinls.obj
 0002:00004f70       ??_C@_17KPNDCPAF@?$AAd?$AAi?$AAv?$AA?$AA@ 0000000180032f70     LIBCMT:winapinls.obj
 0002:00004f78       ??_C@_11LOCGONAA@?$AA?$AA@ 0000000180032f78     LIBCMT:winapinls.obj
 0002:00004f80       ??_C@_1M@OKAHONE@?$AAa?$AAr?$AA?9?$AAS?$AAA?$AA?$AA@ 0000000180032f80     LIBCMT:winapinls.obj
 0002:00004f90       ??_C@_1M@FFFIGIGK@?$AAb?$AAg?$AA?9?$AAB?$AAG?$AA?$AA@ 0000000180032f90     LIBCMT:winapinls.obj
 0002:00004fa0       ??_C@_1M@BJNKEDC@?$AAc?$AAa?$AA?9?$AAE?$AAS?$AA?$AA@ 0000000180032fa0     LIBCMT:winapinls.obj
 0002:00004fb0       ??_C@_1M@IJJHFJHA@?$AAc?$AAs?$AA?9?$AAC?$AAZ?$AA?$AA@ 0000000180032fb0     LIBCMT:winapinls.obj
 0002:00004fc0       ??_C@_1M@CLPEOBGI@?$AAd?$AAa?$AA?9?$AAD?$AAK?$AA?$AA@ 0000000180032fc0     LIBCMT:winapinls.obj
 0002:00004fd0       ??_C@_1M@MCMADGCB@?$AAd?$AAe?$AA?9?$AAD?$AAE?$AA?$AA@ 0000000180032fd0     LIBCMT:winapinls.obj
 0002:00004fe0       ??_C@_1M@OOCKEMAM@?$AAe?$AAl?$AA?9?$AAG?$AAR?$AA?$AA@ 0000000180032fe0     LIBCMT:winapinls.obj
 0002:00004ff0       ??_C@_1M@DDNJFGID@?$AAf?$AAi?$AA?9?$AAF?$AAI?$AA?$AA@ 0000000180032ff0     LIBCMT:winapinls.obj
 0002:00005000       ??_C@_1M@GLIPPMAC@?$AAf?$AAr?$AA?9?$AAF?$AAR?$AA?$AA@ 0000000180033000     LIBCMT:winapinls.obj
 0002:00005010       ??_C@_1M@GFMCHPE@?$AAh?$AAe?$AA?9?$AAI?$AAL?$AA?$AA@ 0000000180033010     LIBCMT:winapinls.obj
 0002:00005020       ??_C@_1M@MHLPGNKM@?$AAh?$AAu?$AA?9?$AAH?$AAU?$AA?$AA@ 0000000180033020     LIBCMT:winapinls.obj
 0002:00005030       ??_C@_1M@LPDDNNPN@?$AAi?$AAs?$AA?9?$AAI?$AAS?$AA?$AA@ 0000000180033030     LIBCMT:winapinls.obj
 0002:00005040       ??_C@_1M@MADIPODN@?$AAi?$AAt?$AA?9?$AAI?$AAT?$AA?$AA@ 0000000180033040     LIBCMT:winapinls.obj
 0002:00005050       ??_C@_1M@IHBJJGG@?$AAn?$AAl?$AA?9?$AAN?$AAL?$AA?$AA@ 0000000180033050     LIBCMT:winapinls.obj
 0002:00005060       ??_C@_1M@EANAGDL@?$AAn?$AAb?$AA?9?$AAN?$AAO?$AA?$AA@ 0000000180033060     LIBCMT:winapinls.obj
 0002:00005070       ??_C@_1M@NEIEMEGP@?$AAp?$AAl?$AA?9?$AAP?$AAL?$AA?$AA@ 0000000180033070     LIBCMT:winapinls.obj
 0002:00005080       ??_C@_1M@BOCFIGEP@?$AAp?$AAt?$AA?9?$AAB?$AAR?$AA?$AA@ 0000000180033080     LIBCMT:winapinls.obj
 0002:00005090       ??_C@_1M@IMPFOPBG@?$AAr?$AAo?$AA?9?$AAR?$AAO?$AA?$AA@ 0000000180033090     LIBCMT:winapinls.obj
 0002:000050a0       ??_C@_1M@IDNNEJMM@?$AAr?$AAu?$AA?9?$AAR?$AAU?$AA?$AA@ 00000001800330a0     LIBCMT:winapinls.obj
 0002:000050b0       ??_C@_1M@LILEEOGM@?$AAh?$AAr?$AA?9?$AAH?$AAR?$AA?$AA@ 00000001800330b0     LIBCMT:winapinls.obj
 0002:000050c0       ??_C@_1M@FKIFEHPB@?$AAs?$AAk?$AA?9?$AAS?$AAK?$AA?$AA@ 00000001800330c0     LIBCMT:winapinls.obj
 0002:000050d0       ??_C@_1M@LJMAMNPJ@?$AAs?$AAq?$AA?9?$AAA?$AAL?$AA?$AA@ 00000001800330d0     LIBCMT:winapinls.obj
 0002:000050e0       ??_C@_1M@GIAKDKJK@?$AAs?$AAv?$AA?9?$AAS?$AAE?$AA?$AA@ 00000001800330e0     LIBCMT:winapinls.obj
 0002:000050f0       ??_C@_1M@MKJKIKCL@?$AAt?$AAh?$AA?9?$AAT?$AAH?$AA?$AA@ 00000001800330f0     LIBCMT:winapinls.obj
 0002:00005100       ??_C@_1M@MFLCCMPB@?$AAt?$AAr?$AA?9?$AAT?$AAR?$AA?$AA@ 0000000180033100     LIBCMT:winapinls.obj
 0002:00005110       ??_C@_1M@OIJHDKJN@?$AAu?$AAr?$AA?9?$AAP?$AAK?$AA?$AA@ 0000000180033110     LIBCMT:winapinls.obj
 0002:00005120       ??_C@_1M@LHIPCIEK@?$AAi?$AAd?$AA?9?$AAI?$AAD?$AA?$AA@ 0000000180033120     LIBCMT:winapinls.obj
 0002:00005130       ??_C@_1M@MFMOBGI@?$AAu?$AAk?$AA?9?$AAU?$AAA?$AA?$AA@ 0000000180033130     LIBCMT:winapinls.obj
 0002:00005140       ??_C@_1M@OBGLJIPL@?$AAb?$AAe?$AA?9?$AAB?$AAY?$AA?$AA@ 0000000180033140     LIBCMT:winapinls.obj
 0002:00005150       ??_C@_1M@BCFAJEAD@?$AAs?$AAl?$AA?9?$AAS?$AAI?$AA?$AA@ 0000000180033150     LIBCMT:winapinls.obj
 0002:00005160       ??_C@_1M@FKFFEDDN@?$AAe?$AAt?$AA?9?$AAE?$AAE?$AA?$AA@ 0000000180033160     LIBCMT:winapinls.obj
 0002:00005170       ??_C@_1M@KGKKAACI@?$AAl?$AAv?$AA?9?$AAL?$AAV?$AA?$AA@ 0000000180033170     LIBCMT:winapinls.obj
 0002:00005180       ??_C@_1M@IFGBIJO@?$AAl?$AAt?$AA?9?$AAL?$AAT?$AA?$AA@ 0000000180033180     LIBCMT:winapinls.obj
 0002:00005190       ??_C@_1M@FGEAHEDM@?$AAf?$AAa?$AA?9?$AAI?$AAR?$AA?$AA@ 0000000180033190     LIBCMT:winapinls.obj
 0002:000051a0       ??_C@_1M@KBMAIBFN@?$AAv?$AAi?$AA?9?$AAV?$AAN?$AA?$AA@ 00000001800331a0     LIBCMT:winapinls.obj
 0002:000051b0       ??_C@_1M@GPCBKDJK@?$AAh?$AAy?$AA?9?$AAA?$AAM?$AA?$AA@ 00000001800331b0     LIBCMT:winapinls.obj
 0002:000051c0       ??_C@_1BG@BECMDDJB@?$AAa?$AAz?$AA?9?$AAA?$AAZ?$AA?9?$AAL?$AAa?$AAt?$AAn?$AA?$AA@ 00000001800331c0     LIBCMT:winapinls.obj
 0002:000051d8       ??_C@_1M@MAOFCAEA@?$AAe?$AAu?$AA?9?$AAE?$AAS?$AA?$AA@ 00000001800331d8     LIBCMT:winapinls.obj
 0002:000051e8       ??_C@_1M@IGHABKPI@?$AAm?$AAk?$AA?9?$AAM?$AAK?$AA?$AA@ 00000001800331e8     LIBCMT:winapinls.obj
 0002:000051f8       ??_C@_1M@IAIGNEJG@?$AAt?$AAn?$AA?9?$AAZ?$AAA?$AA?$AA@ 00000001800331f8     LIBCMT:winapinls.obj
 0002:00005208       ??_C@_1M@IIJCOJFA@?$AAx?$AAh?$AA?9?$AAZ?$AAA?$AA?$AA@ 0000000180033208     LIBCMT:winapinls.obj
 0002:00005218       ??_C@_1M@LGPJHNJH@?$AAz?$AAu?$AA?9?$AAZ?$AAA?$AA?$AA@ 0000000180033218     LIBCMT:winapinls.obj
 0002:00005228       ??_C@_1M@HOKAOIO@?$AAa?$AAf?$AA?9?$AAZ?$AAA?$AA?$AA@ 0000000180033228     LIBCMT:winapinls.obj
 0002:00005238       ??_C@_1M@DPCLHLIE@?$AAk?$AAa?$AA?9?$AAG?$AAE?$AA?$AA@ 0000000180033238     LIBCMT:winapinls.obj
 0002:00005248       ??_C@_1M@BLKMHJBI@?$AAf?$AAo?$AA?9?$AAF?$AAO?$AA?$AA@ 0000000180033248     LIBCMT:winapinls.obj
 0002:00005258       ??_C@_1M@LGGJAPPB@?$AAh?$AAi?$AA?9?$AAI?$AAN?$AA?$AA@ 0000000180033258     LIBCMT:winapinls.obj
 0002:00005268       ??_C@_1M@FIKPIHFE@?$AAm?$AAt?$AA?9?$AAM?$AAT?$AA?$AA@ 0000000180033268     LIBCMT:winapinls.obj
 0002:00005278       ??_C@_1M@HEGGPBFA@?$AAs?$AAe?$AA?9?$AAN?$AAO?$AA?$AA@ 0000000180033278     LIBCMT:winapinls.obj
 0002:00005288       ??_C@_1M@EIBJEEPA@?$AAm?$AAs?$AA?9?$AAM?$AAY?$AA?$AA@ 0000000180033288     LIBCMT:winapinls.obj
 0002:00005298       ??_C@_1M@FHLBGMPP@?$AAk?$AAk?$AA?9?$AAK?$AAZ?$AA?$AA@ 0000000180033298     LIBCMT:winapinls.obj
 0002:000052a8       ??_C@_1M@NGJJLCGI@?$AAk?$AAy?$AA?9?$AAK?$AAG?$AA?$AA@ 00000001800332a8     LIBCMT:winapinls.obj
 0002:000052b8       ??_C@_1M@GIENNBFC@?$AAs?$AAw?$AA?9?$AAK?$AAE?$AA?$AA@ 00000001800332b8     LIBCMT:winapinls.obj
 0002:000052c8       ??_C@_1BG@NDGMJIMJ@?$AAu?$AAz?$AA?9?$AAU?$AAZ?$AA?9?$AAL?$AAa?$AAt?$AAn?$AA?$AA@ 00000001800332c8     LIBCMT:winapinls.obj
 0002:000052e0       ??_C@_1M@IDCCIHBC@?$AAt?$AAt?$AA?9?$AAR?$AAU?$AA?$AA@ 00000001800332e0     LIBCMT:winapinls.obj
 0002:000052f0       ??_C@_1M@LOICPMOJ@?$AAb?$AAn?$AA?9?$AAI?$AAN?$AA?$AA@ 00000001800332f0     LIBCMT:winapinls.obj
 0002:00005300       ??_C@_1M@KPKKNEAH@?$AAp?$AAa?$AA?9?$AAI?$AAN?$AA?$AA@ 0000000180033300     LIBCMT:winapinls.obj
 0002:00005310       ??_C@_1M@PJGPPBOG@?$AAg?$AAu?$AA?9?$AAI?$AAN?$AA?$AA@ 0000000180033310     LIBCMT:winapinls.obj
 0002:00005320       ??_C@_1M@KMKMOPHI@?$AAt?$AAa?$AA?9?$AAI?$AAN?$AA?$AA@ 0000000180033320     LIBCMT:winapinls.obj
 0002:00005330       ??_C@_1M@KFEHEPAC@?$AAt?$AAe?$AA?9?$AAI?$AAN?$AA?$AA@ 0000000180033330     LIBCMT:winapinls.obj
 0002:00005340       ??_C@_1M@CDCLMGHI@?$AAk?$AAn?$AA?9?$AAI?$AAN?$AA?$AA@ 0000000180033340     LIBCMT:winapinls.obj
 0002:00005350       ??_C@_1M@MIODLDKF@?$AAm?$AAl?$AA?9?$AAI?$AAN?$AA?$AA@ 0000000180033350     LIBCMT:winapinls.obj
 0002:00005360       ??_C@_1M@PBIEACPO@?$AAm?$AAr?$AA?9?$AAI?$AAN?$AA?$AA@ 0000000180033360     LIBCMT:winapinls.obj
 0002:00005370       ??_C@_1M@NIDEAGPH@?$AAs?$AAa?$AA?9?$AAI?$AAN?$AA?$AA@ 0000000180033370     LIBCMT:winapinls.obj
 0002:00005380       ??_C@_1M@FHIHCBIO@?$AAm?$AAn?$AA?9?$AAM?$AAN?$AA?$AA@ 0000000180033380     LIBCMT:winapinls.obj
 0002:00005390       ??_C@_1M@JAIJPENP@?$AAc?$AAy?$AA?9?$AAG?$AAB?$AA?$AA@ 0000000180033390     LIBCMT:winapinls.obj
 0002:000053a0       ??_C@_1M@PHGFBEPN@?$AAg?$AAl?$AA?9?$AAE?$AAS?$AA?$AA@ 00000001800333a0     LIBCMT:winapinls.obj
 0002:000053b0       ??_C@_1O@KPIPDNCP@?$AAk?$AAo?$AAk?$AA?9?$AAI?$AAN?$AA?$AA@ 00000001800333b0     LIBCMT:winapinls.obj
 0002:000053c0       ??_C@_1O@KNHJLDJA@?$AAs?$AAy?$AAr?$AA?9?$AAS?$AAY?$AA?$AA@ 00000001800333c0     LIBCMT:winapinls.obj
 0002:000053d0       ??_C@_1O@MKEKBLAH@?$AAd?$AAi?$AAv?$AA?9?$AAM?$AAV?$AA?$AA@ 00000001800333d0     LIBCMT:winapinls.obj
 0002:000053e0       ??_C@_1O@OHDCKDDF@?$AAq?$AAu?$AAz?$AA?9?$AAB?$AAO?$AA?$AA@ 00000001800333e0     LIBCMT:winapinls.obj
 0002:000053f0       ??_C@_1M@LEPJNLFD@?$AAn?$AAs?$AA?9?$AAZ?$AAA?$AA?$AA@ 00000001800333f0     LIBCMT:winapinls.obj
 0002:00005400       ??_C@_1M@OMLEIIJB@?$AAm?$AAi?$AA?9?$AAN?$AAZ?$AA?$AA@ 0000000180033400     LIBCMT:winapinls.obj
 0002:00005410       ??_C@_1M@PMPEAILG@?$AAa?$AAr?$AA?9?$AAI?$AAQ?$AA?$AA@ 0000000180033410     LIBCMT:winapinls.obj
 0002:00005420       ??_C@_1M@CNKPNOEE@?$AAd?$AAe?$AA?9?$AAC?$AAH?$AA?$AA@ 0000000180033420     LIBCMT:winapinls.obj
 0002:00005430       ??_C@_1M@LKMGMLKO@?$AAe?$AAn?$AA?9?$AAG?$AAB?$AA?$AA@ 0000000180033430     LIBCMT:winapinls.obj
 0002:00005440       ??_C@_1M@PGKJFFGL@?$AAe?$AAs?$AA?9?$AAM?$AAX?$AA?$AA@ 0000000180033440     LIBCMT:winapinls.obj
 0002:00005450       ??_C@_1M@DNNANBDC@?$AAf?$AAr?$AA?9?$AAB?$AAE?$AA?$AA@ 0000000180033450     LIBCMT:winapinls.obj
 0002:00005460       ??_C@_1M@HLGMDFHM@?$AAi?$AAt?$AA?9?$AAC?$AAH?$AA?$AA@ 0000000180033460     LIBCMT:winapinls.obj
 0002:00005470       ??_C@_1M@CLLBGJH@?$AAn?$AAl?$AA?9?$AAB?$AAE?$AA?$AA@ 0000000180033470     LIBCMT:winapinls.obj
 0002:00005480       ??_C@_1M@BODBOGLF@?$AAn?$AAn?$AA?9?$AAN?$AAO?$AA?$AA@ 0000000180033480     LIBCMT:winapinls.obj
 0002:00005490       ??_C@_1M@HFFAHKAD@?$AAp?$AAt?$AA?9?$AAP?$AAT?$AA?$AA@ 0000000180033490     LIBCMT:winapinls.obj
 0002:000054a0       ??_C@_1BG@LNOAKHIE@?$AAs?$AAr?$AA?9?$AAS?$AAP?$AA?9?$AAL?$AAa?$AAt?$AAn?$AA?$AA@ 00000001800334a0     LIBCMT:winapinls.obj
 0002:000054b8       ??_C@_1M@HBMHBGAK@?$AAs?$AAv?$AA?9?$AAF?$AAI?$AA?$AA@ 00000001800334b8     LIBCMT:winapinls.obj
 0002:000054c8       ??_C@_1BG@DGCJGJBE@?$AAa?$AAz?$AA?9?$AAA?$AAZ?$AA?9?$AAC?$AAy?$AAr?$AAl?$AA?$AA@ 00000001800334c8     LIBCMT:winapinls.obj
 0002:000054e0       ??_C@_1M@KEJDAAHB@?$AAs?$AAe?$AA?9?$AAS?$AAE?$AA?$AA@ 00000001800334e0     LIBCMT:winapinls.obj
 0002:000054f0       ??_C@_1M@HEIBJJAD@?$AAm?$AAs?$AA?9?$AAB?$AAN?$AA?$AA@ 00000001800334f0     LIBCMT:winapinls.obj
 0002:00005500       ??_C@_1BG@PBGJMCEM@?$AAu?$AAz?$AA?9?$AAU?$AAZ?$AA?9?$AAC?$AAy?$AAr?$AAl?$AA?$AA@ 0000000180033500     LIBCMT:winapinls.obj
 0002:00005518       ??_C@_1O@LAOBCMDF@?$AAq?$AAu?$AAz?$AA?9?$AAE?$AAC?$AA?$AA@ 0000000180033518     LIBCMT:winapinls.obj
 0002:00005528       ??_C@_1M@POEEMAIO@?$AAa?$AAr?$AA?9?$AAE?$AAG?$AA?$AA@ 0000000180033528     LIBCMT:winapinls.obj
 0002:00005538       ??_C@_1M@EFAKDEDL@?$AAz?$AAh?$AA?9?$AAH?$AAK?$AA?$AA@ 0000000180033538     LIBCMT:winapinls.obj
 0002:00005548       ??_C@_1M@HKKIJHGI@?$AAd?$AAe?$AA?9?$AAA?$AAT?$AA?$AA@ 0000000180033548     LIBCMT:winapinls.obj
 0002:00005558       ??_C@_1M@KBFBEHJF@?$AAe?$AAn?$AA?9?$AAA?$AAU?$AA?$AA@ 0000000180033558     LIBCMT:winapinls.obj
 0002:00005568       ??_C@_1M@MNPLFAAH@?$AAe?$AAs?$AA?9?$AAE?$AAS?$AA?$AA@ 0000000180033568     LIBCMT:winapinls.obj
 0002:00005578       ??_C@_1M@HJOOJFMA@?$AAf?$AAr?$AA?9?$AAC?$AAA?$AA?$AA@ 0000000180033578     LIBCMT:winapinls.obj
 0002:00005588       ??_C@_1BG@JPOFPNAB@?$AAs?$AAr?$AA?9?$AAS?$AAP?$AA?9?$AAC?$AAy?$AAr?$AAl?$AA?$AA@ 0000000180033588     LIBCMT:winapinls.obj
 0002:000055a0       ??_C@_1M@LNFOCMOB@?$AAs?$AAe?$AA?9?$AAF?$AAI?$AA?$AA@ 00000001800335a0     LIBCMT:winapinls.obj
 0002:000055b0       ??_C@_1O@MGJBOAMB@?$AAq?$AAu?$AAz?$AA?9?$AAP?$AAE?$AA?$AA@ 00000001800335b0     LIBCMT:winapinls.obj
 0002:000055c0       ??_C@_1M@GJINLBOK@?$AAa?$AAr?$AA?9?$AAL?$AAY?$AA?$AA@ 00000001800335c0     LIBCMT:winapinls.obj
 0002:000055d0       ??_C@_1M@GGMNHJNL@?$AAz?$AAh?$AA?9?$AAS?$AAG?$AA?$AA@ 00000001800335d0     LIBCMT:winapinls.obj
 0002:000055e0       ??_C@_1M@HOIKODND@?$AAd?$AAe?$AA?9?$AAL?$AAU?$AA?$AA@ 00000001800335e0     LIBCMT:winapinls.obj
 0002:000055f0       ??_C@_1M@DDOCCGFG@?$AAe?$AAn?$AA?9?$AAC?$AAA?$AA?$AA@ 00000001800335f0     LIBCMT:winapinls.obj
 0002:00005600       ??_C@_1M@BNOEMJLF@?$AAe?$AAs?$AA?9?$AAG?$AAT?$AA?$AA@ 0000000180033600     LIBCMT:winapinls.obj
 0002:00005610       ??_C@_1M@EOGNKEK@?$AAf?$AAr?$AA?9?$AAC?$AAH?$AA?$AA@ 0000000180033610     LIBCMT:winapinls.obj
 0002:00005620       ??_C@_1M@FLIDJFHL@?$AAh?$AAr?$AA?9?$AAB?$AAA?$AA?$AA@ 0000000180033620     LIBCMT:winapinls.obj
 0002:00005630       ??_C@_1O@FMCELNAJ@?$AAs?$AAm?$AAj?$AA?9?$AAN?$AAO?$AA?$AA@ 0000000180033630     LIBCMT:winapinls.obj
 0002:00005640       ??_C@_1M@JHGLJMGJ@?$AAa?$AAr?$AA?9?$AAD?$AAZ?$AA?$AA@ 0000000180033640     LIBCMT:winapinls.obj
 0002:00005650       ??_C@_1M@JKKFDCNP@?$AAz?$AAh?$AA?9?$AAM?$AAO?$AA?$AA@ 0000000180033650     LIBCMT:winapinls.obj
 0002:00005660       ??_C@_1M@GEEFALPE@?$AAd?$AAe?$AA?9?$AAL?$AAI?$AA?$AA@ 0000000180033660     LIBCMT:winapinls.obj
 0002:00005670       ??_C@_1M@IGEOFBG@?$AAe?$AAn?$AA?9?$AAN?$AAZ?$AA?$AA@ 0000000180033670     LIBCMT:winapinls.obj
 0002:00005680       ??_C@_1M@KDBONEHP@?$AAe?$AAs?$AA?9?$AAC?$AAR?$AA?$AA@ 0000000180033680     LIBCMT:winapinls.obj
 0002:00005690       ??_C@_1M@FHMDOHNN@?$AAf?$AAr?$AA?9?$AAL?$AAU?$AA?$AA@ 0000000180033690     LIBCMT:winapinls.obj
 0002:000056a0       ??_C@_1BG@NFKKMAFG@?$AAb?$AAs?$AA?9?$AAB?$AAA?$AA?9?$AAL?$AAa?$AAt?$AAn?$AA?$AA@ 00000001800336a0     LIBCMT:winapinls.obj
 0002:000056b8       ??_C@_1O@IMNBEMCI@?$AAs?$AAm?$AAj?$AA?9?$AAS?$AAE?$AA?$AA@ 00000001800336b8     LIBCMT:winapinls.obj
 0002:000056c8       ??_C@_1M@DHHMBNDP@?$AAa?$AAr?$AA?9?$AAM?$AAA?$AA?$AA@ 00000001800336c8     LIBCMT:winapinls.obj
 0002:000056d8       ??_C@_1M@BNBLJCGH@?$AAe?$AAn?$AA?9?$AAI?$AAE?$AA?$AA@ 00000001800336d8     LIBCMT:winapinls.obj
 0002:000056e8       ??_C@_1M@GEPAFMDL@?$AAe?$AAs?$AA?9?$AAP?$AAA?$AA?$AA@ 00000001800336e8     LIBCMT:winapinls.obj
 0002:000056f8       ??_C@_1M@OJONDMDL@?$AAf?$AAr?$AA?9?$AAM?$AAC?$AA?$AA@ 00000001800336f8     LIBCMT:winapinls.obj
 0002:00005708       ??_C@_1BG@OBCNFJB@?$AAs?$AAr?$AA?9?$AAB?$AAA?$AA?9?$AAL?$AAa?$AAt?$AAn?$AA?$AA@ 0000000180033708     LIBCMT:winapinls.obj
 0002:00005720       ??_C@_1O@KEMEEGPO@?$AAs?$AAm?$AAa?$AA?9?$AAN?$AAO?$AA?$AA@ 0000000180033720     LIBCMT:winapinls.obj
 0002:00005730       ??_C@_1M@ELMGFODK@?$AAa?$AAr?$AA?9?$AAT?$AAN?$AA?$AA@ 0000000180033730     LIBCMT:winapinls.obj
 0002:00005740       ??_C@_1M@BHDLHFAF@?$AAe?$AAn?$AA?9?$AAZ?$AAA?$AA?$AA@ 0000000180033740     LIBCMT:winapinls.obj
 0002:00005750       ??_C@_1M@BMGIGLIF@?$AAe?$AAs?$AA?9?$AAD?$AAO?$AA?$AA@ 0000000180033750     LIBCMT:winapinls.obj
 0002:00005760       ??_C@_1BG@CMBHIPBE@?$AAs?$AAr?$AA?9?$AAB?$AAA?$AA?9?$AAC?$AAy?$AAr?$AAl?$AA?$AA@ 0000000180033760     LIBCMT:winapinls.obj
 0002:00005778       ??_C@_1O@HEDBLHNP@?$AAs?$AAm?$AAa?$AA?9?$AAS?$AAE?$AA?$AA@ 0000000180033778     LIBCMT:winapinls.obj
 0002:00005788       ??_C@_1M@DAGCADIM@?$AAa?$AAr?$AA?9?$AAO?$AAM?$AA?$AA@ 0000000180033788     LIBCMT:winapinls.obj
 0002:00005798       ??_C@_1M@FODLMICG@?$AAe?$AAn?$AA?9?$AAJ?$AAM?$AA?$AA@ 0000000180033798     LIBCMT:winapinls.obj
 0002:000057a8       ??_C@_1M@DNMLCIHB@?$AAe?$AAs?$AA?9?$AAV?$AAE?$AA?$AA@ 00000001800337a8     LIBCMT:winapinls.obj
 0002:000057b8       ??_C@_1O@EOKHMKJK@?$AAs?$AAm?$AAs?$AA?9?$AAF?$AAI?$AA?$AA@ 00000001800337b8     LIBCMT:winapinls.obj
 0002:000057c8       ??_C@_1M@CAFJMKOF@?$AAa?$AAr?$AA?9?$AAY?$AAE?$AA?$AA@ 00000001800337c8     LIBCMT:winapinls.obj
 0002:000057d8       ??_C@_1M@CBFHIJLI@?$AAe?$AAn?$AA?9?$AAC?$AAB?$AA?$AA@ 00000001800337d8     LIBCMT:winapinls.obj
 0002:000057e8       ??_C@_1M@BGNFLDN@?$AAe?$AAs?$AA?9?$AAC?$AAO?$AA?$AA@ 00000001800337e8     LIBCMT:winapinls.obj
 0002:000057f8       ??_C@_1O@JMPHMAMC@?$AAs?$AAm?$AAn?$AA?9?$AAF?$AAI?$AA?$AA@ 00000001800337f8     LIBCMT:winapinls.obj
 0002:00005808       ??_C@_1M@JLANABKE@?$AAa?$AAr?$AA?9?$AAS?$AAY?$AA?$AA@ 0000000180033808     LIBCMT:winapinls.obj
 0002:00005818       ??_C@_1M@HPKGCFGN@?$AAe?$AAn?$AA?9?$AAB?$AAZ?$AA?$AA@ 0000000180033818     LIBCMT:winapinls.obj
 0002:00005828       ??_C@_1M@OLJCMLGM@?$AAe?$AAs?$AA?9?$AAP?$AAE?$AA?$AA@ 0000000180033828     LIBCMT:winapinls.obj
 0002:00005838       ??_C@_1M@MKKGFKLE@?$AAa?$AAr?$AA?9?$AAJ?$AAO?$AA?$AA@ 0000000180033838     LIBCMT:winapinls.obj
 0002:00005848       ??_C@_1M@EKPGLDNI@?$AAe?$AAn?$AA?9?$AAT?$AAT?$AA?$AA@ 0000000180033848     LIBCMT:winapinls.obj
 0002:00005858       ??_C@_1M@OONGHFHE@?$AAe?$AAs?$AA?9?$AAA?$AAR?$AA?$AA@ 0000000180033858     LIBCMT:winapinls.obj
 0002:00005868       ??_C@_1M@OOJFGBHE@?$AAa?$AAr?$AA?9?$AAL?$AAB?$AA?$AA@ 0000000180033868     LIBCMT:winapinls.obj
 0002:00005878       ??_C@_1M@GCEJHNEG@?$AAe?$AAn?$AA?9?$AAZ?$AAW?$AA?$AA@ 0000000180033878     LIBCMT:winapinls.obj
 0002:00005888       ??_C@_1M@JNOCAHJI@?$AAe?$AAs?$AA?9?$AAE?$AAC?$AA?$AA@ 0000000180033888     LIBCMT:winapinls.obj
 0002:00005898       ??_C@_1M@JEFHPGGB@?$AAa?$AAr?$AA?9?$AAK?$AAW?$AA?$AA@ 0000000180033898     LIBCMT:winapinls.obj
 0002:000058a8       ??_C@_1M@MLKIBJOJ@?$AAe?$AAn?$AA?9?$AAP?$AAH?$AA?$AA@ 00000001800338a8     LIBCMT:winapinls.obj
 0002:000058b8       ??_C@_1M@BDNIPEND@?$AAe?$AAs?$AA?9?$AAC?$AAL?$AA?$AA@ 00000001800338b8     LIBCMT:winapinls.obj
 0002:000058c8       ??_C@_1M@MPNMEKBD@?$AAa?$AAr?$AA?9?$AAA?$AAE?$AA?$AA@ 00000001800338c8     LIBCMT:winapinls.obj
 0002:000058d8       ??_C@_1M@KBJALCPI@?$AAe?$AAs?$AA?9?$AAU?$AAY?$AA?$AA@ 00000001800338d8     LIBCMT:winapinls.obj
 0002:000058e8       ??_C@_1M@LLCCOAGA@?$AAa?$AAr?$AA?9?$AAB?$AAH?$AA?$AA@ 00000001800338e8     LIBCMT:winapinls.obj
 0002:000058f8       ??_C@_1M@PBFNCDEL@?$AAe?$AAs?$AA?9?$AAP?$AAY?$AA?$AA@ 00000001800338f8     LIBCMT:winapinls.obj
 0002:00005908       ??_C@_1M@EDGINPNP@?$AAa?$AAr?$AA?9?$AAQ?$AAA?$AA?$AA@ 0000000180033908     LIBCMT:winapinls.obj
 0002:00005918       ??_C@_1M@MKDBIIJI@?$AAe?$AAs?$AA?9?$AAB?$AAO?$AA?$AA@ 0000000180033918     LIBCMT:winapinls.obj
 0002:00005928       ??_C@_1M@CPKKEBLD@?$AAe?$AAs?$AA?9?$AAS?$AAV?$AA?$AA@ 0000000180033928     LIBCMT:winapinls.obj
 0002:00005938       ??_C@_1M@NDBGMMJL@?$AAe?$AAs?$AA?9?$AAH?$AAN?$AA?$AA@ 0000000180033938     LIBCMT:winapinls.obj
 0002:00005948       ??_C@_1M@JIJIBHDP@?$AAe?$AAs?$AA?9?$AAN?$AAI?$AA?$AA@ 0000000180033948     LIBCMT:winapinls.obj
 0002:00005958       ??_C@_1M@CGFMKEEK@?$AAe?$AAs?$AA?9?$AAP?$AAR?$AA?$AA@ 0000000180033958     LIBCMT:winapinls.obj
 0002:00005968       ??_C@_1O@ICJHKIIK@?$AAz?$AAh?$AA?9?$AAC?$AAH?$AAT?$AA?$AA@ 0000000180033968     LIBCMT:winapinls.obj
 0002:00005978       ??_C@_15CLNEJCE@?$AAs?$AAr?$AA?$AA@ 0000000180033978     LIBCMT:winapinls.obj
 0002:00005980       ??_C@_1M@KAHEKEIG@?$AAa?$AAf?$AA?9?$AAz?$AAa?$AA?$AA@ 0000000180033980     LIBCMT:winapinls.obj
 0002:00005990       ??_C@_1M@GIECOABL@?$AAa?$AAr?$AA?9?$AAa?$AAe?$AA?$AA@ 0000000180033990     LIBCMT:winapinls.obj
 0002:000059a0       ??_C@_1M@BMLMEKGI@?$AAa?$AAr?$AA?9?$AAb?$AAh?$AA?$AA@ 00000001800339a0     LIBCMT:winapinls.obj
 0002:000059b0       ??_C@_1M@DAPFDGGB@?$AAa?$AAr?$AA?9?$AAd?$AAz?$AA?$AA@ 00000001800339b0     LIBCMT:winapinls.obj
 0002:000059c0       ??_C@_1M@FJNKGKIG@?$AAa?$AAr?$AA?9?$AAe?$AAg?$AA?$AA@ 00000001800339c0     LIBCMT:winapinls.obj
 0002:000059d0       ??_C@_1M@FLGKKCLO@?$AAa?$AAr?$AA?9?$AAi?$AAq?$AA?$AA@ 00000001800339d0     LIBCMT:winapinls.obj
 0002:000059e0       ??_C@_1M@GNDIPALM@?$AAa?$AAr?$AA?9?$AAj?$AAo?$AA?$AA@ 00000001800339e0     LIBCMT:winapinls.obj
 0002:000059f0       ??_C@_1M@DDMJFMGJ@?$AAa?$AAr?$AA?9?$AAk?$AAw?$AA?$AA@ 00000001800339f0     LIBCMT:winapinls.obj
 0002:00005a00       ??_C@_1M@EJALMLHM@?$AAa?$AAr?$AA?9?$AAl?$AAb?$AA?$AA@ 0000000180033a00     LIBCMT:winapinls.obj
 0002:00005a10       ??_C@_1M@MOBDBLOC@?$AAa?$AAr?$AA?9?$AAl?$AAy?$AA?$AA@ 0000000180033a10     LIBCMT:winapinls.obj
 0002:00005a20       ??_C@_1M@JAOCLHDH@?$AAa?$AAr?$AA?9?$AAm?$AAa?$AA?$AA@ 0000000180033a20     LIBCMT:winapinls.obj
 0002:00005a30       ??_C@_1M@JHPMKJIE@?$AAa?$AAr?$AA?9?$AAo?$AAm?$AA?$AA@ 0000000180033a30     LIBCMT:winapinls.obj
 0002:00005a40       ??_C@_1M@OEPGHFNH@?$AAa?$AAr?$AA?9?$AAq?$AAa?$AA?$AA@ 0000000180033a40     LIBCMT:winapinls.obj
 0002:00005a50       ??_C@_1M@KJDONENM@?$AAa?$AAr?$AA?9?$AAs?$AAa?$AA?$AA@ 0000000180033a50     LIBCMT:winapinls.obj
 0002:00005a60       ??_C@_1M@DMJDKLKM@?$AAa?$AAr?$AA?9?$AAs?$AAy?$AA?$AA@ 0000000180033a60     LIBCMT:winapinls.obj
 0002:00005a70       ??_C@_1M@OMFIPEDC@?$AAa?$AAr?$AA?9?$AAt?$AAn?$AA?$AA@ 0000000180033a70     LIBCMT:winapinls.obj
 0002:00005a80       ??_C@_1M@IHMHGAON@?$AAa?$AAr?$AA?9?$AAy?$AAe?$AA?$AA@ 0000000180033a80     LIBCMT:winapinls.obj
 0002:00005a90       ??_C@_1BG@KDCPGJGB@?$AAa?$AAz?$AA?9?$AAa?$AAz?$AA?9?$AAc?$AAy?$AAr?$AAl?$AA?$AA@ 0000000180033a90     LIBCMT:winapinls.obj
 0002:00005aa8       ??_C@_1BG@IBCKDDOE@?$AAa?$AAz?$AA?9?$AAa?$AAz?$AA?9?$AAl?$AAa?$AAt?$AAn?$AA?$AA@ 0000000180033aa8     LIBCMT:winapinls.obj
 0002:00005ac0       ??_C@_1M@EGPFDCPD@?$AAb?$AAe?$AA?9?$AAb?$AAy?$AA?$AA@ 0000000180033ac0     LIBCMT:winapinls.obj
 0002:00005ad0       ??_C@_1M@PCMGMCGC@?$AAb?$AAg?$AA?9?$AAb?$AAg?$AA?$AA@ 0000000180033ad0     LIBCMT:winapinls.obj
 0002:00005ae0       ??_C@_1M@BJBMFGOB@?$AAb?$AAn?$AA?9?$AAi?$AAn?$AA?$AA@ 0000000180033ae0     LIBCMT:winapinls.obj
 0002:00005af0       ??_C@_1BG@EAKMMACD@?$AAb?$AAs?$AA?9?$AAb?$AAa?$AA?9?$AAl?$AAa?$AAt?$AAn?$AA?$AA@ 0000000180033af0     LIBCMT:winapinls.obj
 0002:00005b08       ??_C@_1M@KGADAODK@?$AAc?$AAa?$AA?9?$AAe?$AAs?$AA?$AA@ 0000000180033b08     LIBCMT:winapinls.obj
 0002:00005b18       ??_C@_1M@COAJPDHI@?$AAc?$AAs?$AA?9?$AAc?$AAz?$AA?$AA@ 0000000180033b18     LIBCMT:winapinls.obj
 0002:00005b28       ??_C@_1M@DHBHFONH@?$AAc?$AAy?$AA?9?$AAg?$AAb?$AA?$AA@ 0000000180033b28     LIBCMT:winapinls.obj
 0002:00005b38       ??_C@_1M@IMGKELGA@?$AAd?$AAa?$AA?9?$AAd?$AAk?$AA?$AA@ 0000000180033b38     LIBCMT:winapinls.obj
 0002:00005b48       ??_C@_1M@NNDGDNGA@?$AAd?$AAe?$AA?9?$AAa?$AAt?$AA?$AA@ 0000000180033b48     LIBCMT:winapinls.obj
 0002:00005b58       ??_C@_1M@IKDBHEEM@?$AAd?$AAe?$AA?9?$AAc?$AAh?$AA?$AA@ 0000000180033b58     LIBCMT:winapinls.obj
 0002:00005b68       ??_C@_1M@GFFOJMCJ@?$AAd?$AAe?$AA?9?$AAd?$AAe?$AA?$AA@ 0000000180033b68     LIBCMT:winapinls.obj
 0002:00005b78       ??_C@_1M@MDNLKBPM@?$AAd?$AAe?$AA?9?$AAl?$AAi?$AA?$AA@ 0000000180033b78     LIBCMT:winapinls.obj
 0002:00005b88       ??_C@_1M@NJBEEJNL@?$AAd?$AAe?$AA?9?$AAl?$AAu?$AA?$AA@ 0000000180033b88     LIBCMT:winapinls.obj
 0002:00005b98       ??_C@_1O@GNNELBAP@?$AAd?$AAi?$AAv?$AA?9?$AAm?$AAv?$AA?$AA@ 0000000180033b98     LIBCMT:winapinls.obj
 0002:00005ba8       ??_C@_1M@EJLEOGAE@?$AAe?$AAl?$AA?9?$AAg?$AAr?$AA?$AA@ 0000000180033ba8     LIBCMT:winapinls.obj
 0002:00005bb8       ??_C@_1M@GMPONJN@?$AAe?$AAn?$AA?9?$AAa?$AAu?$AA?$AA@ 0000000180033bb8     LIBCMT:winapinls.obj
 0002:00005bc8       ??_C@_1M@NIDIIPGF@?$AAe?$AAn?$AA?9?$AAb?$AAz?$AA?$AA@ 0000000180033bc8     LIBCMT:winapinls.obj
 0002:00005bd8       ??_C@_1M@JEHMIMFO@?$AAe?$AAn?$AA?9?$AAc?$AAa?$AA?$AA@ 0000000180033bd8     LIBCMT:winapinls.obj
 0002:00005be8       ??_C@_1M@IGMJCDLA@?$AAe?$AAn?$AA?9?$AAc?$AAb?$AA?$AA@ 0000000180033be8     LIBCMT:winapinls.obj
 0002:00005bf8       ??_C@_1M@BNFIGBKG@?$AAe?$AAn?$AA?9?$AAg?$AAb?$AA?$AA@ 0000000180033bf8     LIBCMT:winapinls.obj
 0002:00005c08       ??_C@_1M@LKIFDIGP@?$AAe?$AAn?$AA?9?$AAi?$AAe?$AA?$AA@ 0000000180033c08     LIBCMT:winapinls.obj
 0002:00005c18       ??_C@_1M@PJKFGCCO@?$AAe?$AAn?$AA?9?$AAj?$AAm?$AA?$AA@ 0000000180033c18     LIBCMT:winapinls.obj
 0002:00005c28       ??_C@_1M@KPPKEPBO@?$AAe?$AAn?$AA?9?$AAn?$AAz?$AA?$AA@ 0000000180033c28     LIBCMT:winapinls.obj
 0002:00005c38       ??_C@_1M@GMDGLDOB@?$AAe?$AAn?$AA?9?$AAp?$AAh?$AA?$AA@ 0000000180033c38     LIBCMT:winapinls.obj
 0002:00005c48       ??_C@_1M@ONGIBJNA@?$AAe?$AAn?$AA?9?$AAt?$AAt?$AA?$AA@ 0000000180033c48     LIBCMT:winapinls.obj
 0002:00005c58       ??_C@_1M@LLODPCMM@?$AAe?$AAn?$AA?9?$AAu?$AAs?$AA?$AA@ 0000000180033c58     LIBCMT:winapinls.obj
 0002:00005c68       ??_C@_1M@LAKFNPAN@?$AAe?$AAn?$AA?9?$AAz?$AAa?$AA?$AA@ 0000000180033c68     LIBCMT:winapinls.obj
 0002:00005c78       ??_C@_1M@MFNHNHEO@?$AAe?$AAn?$AA?9?$AAz?$AAw?$AA?$AA@ 0000000180033c78     LIBCMT:winapinls.obj
 0002:00005c88       ??_C@_1M@EJEINPHM@?$AAe?$AAs?$AA?9?$AAa?$AAr?$AA?$AA@ 0000000180033c88     LIBCMT:winapinls.obj
 0002:00005c98       ??_C@_1M@GNKPCCJA@?$AAe?$AAs?$AA?9?$AAb?$AAo?$AA?$AA@ 0000000180033c98     LIBCMT:winapinls.obj
 0002:00005ca8       ??_C@_1M@LEEGFONL@?$AAe?$AAs?$AA?9?$AAc?$AAl?$AA?$AA@ 0000000180033ca8     LIBCMT:winapinls.obj
 0002:00005cb8       ??_C@_1M@KGPDPBDF@?$AAe?$AAs?$AA?9?$AAc?$AAo?$AA?$AA@ 0000000180033cb8     LIBCMT:winapinls.obj
 0002:00005cc8       ??_C@_1M@EIAHOHH@?$AAe?$AAs?$AA?9?$AAc?$AAr?$AA?$AA@ 0000000180033cc8     LIBCMT:winapinls.obj
 0002:00005cd8       ??_C@_1M@LLPGMBIN@?$AAe?$AAs?$AA?9?$AAd?$AAo?$AA?$AA@ 0000000180033cd8     LIBCMT:winapinls.obj
 0002:00005ce8       ??_C@_1M@DKHMKNJA@?$AAe?$AAs?$AA?9?$AAe?$AAc?$AA?$AA@ 0000000180033ce8     LIBCMT:winapinls.obj
 0002:00005cf8       ??_C@_1M@GKGFPKAP@?$AAe?$AAs?$AA?9?$AAe?$AAs?$AA?$AA@ 0000000180033cf8     LIBCMT:winapinls.obj
 0002:00005d08       ??_C@_1M@LKHKGDLN@?$AAe?$AAs?$AA?9?$AAg?$AAt?$AA?$AA@ 0000000180033d08     LIBCMT:winapinls.obj
 0002:00005d18       ??_C@_1M@HEIIGGJD@?$AAe?$AAs?$AA?9?$AAh?$AAn?$AA?$AA@ 0000000180033d18     LIBCMT:winapinls.obj
 0002:00005d28       ??_C@_1M@FBDHPPGD@?$AAe?$AAs?$AA?9?$AAm?$AAx?$AA?$AA@ 0000000180033d28     LIBCMT:winapinls.obj
 0002:00005d38       ??_C@_1M@DPAGLNDH@?$AAe?$AAs?$AA?9?$AAn?$AAi?$AA?$AA@ 0000000180033d38     LIBCMT:winapinls.obj
 0002:00005d48       ??_C@_1M@MDGOPGDD@?$AAe?$AAs?$AA?9?$AAp?$AAa?$AA?$AA@ 0000000180033d48     LIBCMT:winapinls.obj
 0002:00005d58       ??_C@_1M@EMAMGBGE@?$AAe?$AAs?$AA?9?$AAp?$AAe?$AA?$AA@ 0000000180033d58     LIBCMT:winapinls.obj
 0002:00005d68       ??_C@_1M@IBMCAOEC@?$AAe?$AAs?$AA?9?$AAp?$AAr?$AA?$AA@ 0000000180033d68     LIBCMT:winapinls.obj
 0002:00005d78       ??_C@_1M@FGMDIJED@?$AAe?$AAs?$AA?9?$AAp?$AAy?$AA?$AA@ 0000000180033d78     LIBCMT:winapinls.obj
 0002:00005d88       ??_C@_1M@IIDEOLLL@?$AAe?$AAs?$AA?9?$AAs?$AAv?$AA?$AA@ 0000000180033d88     LIBCMT:winapinls.obj
 0002:00005d98       ??_C@_1M@GAOBIPA@?$AAe?$AAs?$AA?9?$AAu?$AAy?$AA?$AA@ 0000000180033d98     LIBCMT:winapinls.obj
 0002:00005da8       ??_C@_1M@JKFFICHJ@?$AAe?$AAs?$AA?9?$AAv?$AAe?$AA?$AA@ 0000000180033da8     LIBCMT:winapinls.obj
 0002:00005db8       ??_C@_1M@PNMLOJDF@?$AAe?$AAt?$AA?9?$AAe?$AAe?$AA?$AA@ 0000000180033db8     LIBCMT:winapinls.obj
 0002:00005dc8       ??_C@_1M@GHHLIKEI@?$AAe?$AAu?$AA?9?$AAe?$AAs?$AA?$AA@ 0000000180033dc8     LIBCMT:winapinls.obj
 0002:00005dd8       ??_C@_1M@PBNONODE@?$AAf?$AAa?$AA?9?$AAi?$AAr?$AA?$AA@ 0000000180033dd8     LIBCMT:winapinls.obj
 0002:00005de8       ??_C@_1M@JEEHPMIL@?$AAf?$AAi?$AA?9?$AAf?$AAi?$AA?$AA@ 0000000180033de8     LIBCMT:winapinls.obj
 0002:00005df8       ??_C@_1M@LMDCNDBA@?$AAf?$AAo?$AA?9?$AAf?$AAo?$AA?$AA@ 0000000180033df8     LIBCMT:winapinls.obj
 0002:00005e08       ??_C@_1M@JKEOHLDK@?$AAf?$AAr?$AA?9?$AAb?$AAe?$AA?$AA@ 0000000180033e08     LIBCMT:winapinls.obj
 0002:00005e18       ??_C@_1M@NOHADPMI@?$AAf?$AAr?$AA?9?$AAc?$AAa?$AA?$AA@ 0000000180033e18     LIBCMT:winapinls.obj
 0002:00005e28       ??_C@_1M@KDHIHAEC@?$AAf?$AAr?$AA?9?$AAc?$AAh?$AA?$AA@ 0000000180033e28     LIBCMT:winapinls.obj
 0002:00005e38       ??_C@_1M@MMBBFGAK@?$AAf?$AAr?$AA?9?$AAf?$AAr?$AA?$AA@ 0000000180033e38     LIBCMT:winapinls.obj
 0002:00005e48       ??_C@_1M@PAFNENNF@?$AAf?$AAr?$AA?9?$AAl?$AAu?$AA?$AA@ 0000000180033e48     LIBCMT:winapinls.obj
 0002:00005e58       ??_C@_1M@EOHDJGDD@?$AAf?$AAr?$AA?9?$AAm?$AAc?$AA?$AA@ 0000000180033e58     LIBCMT:winapinls.obj
 0002:00005e68       ??_C@_1M@FAPLLOPF@?$AAg?$AAl?$AA?9?$AAe?$AAs?$AA?$AA@ 0000000180033e68     LIBCMT:winapinls.obj
 0002:00005e78       ??_C@_1M@FOPBFLOO@?$AAg?$AAu?$AA?9?$AAi?$AAn?$AA?$AA@ 0000000180033e78     LIBCMT:winapinls.obj
 0002:00005e88       ??_C@_1M@KBMCINPM@?$AAh?$AAe?$AA?9?$AAi?$AAl?$AA?$AA@ 0000000180033e88     LIBCMT:winapinls.obj
 0002:00005e98       ??_C@_1M@BBPHKFPJ@?$AAh?$AAi?$AA?9?$AAi?$AAn?$AA?$AA@ 0000000180033e98     LIBCMT:winapinls.obj
 0002:00005ea8       ??_C@_1M@PMBNDPHD@?$AAh?$AAr?$AA?9?$AAb?$AAa?$AA?$AA@ 0000000180033ea8     LIBCMT:winapinls.obj
 0002:00005eb8       ??_C@_1M@BPCKOEGE@?$AAh?$AAr?$AA?9?$AAh?$AAr?$AA?$AA@ 0000000180033eb8     LIBCMT:winapinls.obj
 0002:00005ec8       ??_C@_1M@GACBMHKE@?$AAh?$AAu?$AA?9?$AAh?$AAu?$AA?$AA@ 0000000180033ec8     LIBCMT:winapinls.obj
 0002:00005ed8       ??_C@_1M@MILPAJJC@?$AAh?$AAy?$AA?9?$AAa?$AAm?$AA?$AA@ 0000000180033ed8     LIBCMT:winapinls.obj
 0002:00005ee8       ??_C@_1M@BABBICEC@?$AAi?$AAd?$AA?9?$AAi?$AAd?$AA?$AA@ 0000000180033ee8     LIBCMT:winapinls.obj
 0002:00005ef8       ??_C@_1M@BIKNHHPF@?$AAi?$AAs?$AA?9?$AAi?$AAs?$AA?$AA@ 0000000180033ef8     LIBCMT:winapinls.obj
 0002:00005f08       ??_C@_1M@NMPCJPHE@?$AAi?$AAt?$AA?9?$AAc?$AAh?$AA?$AA@ 0000000180033f08     LIBCMT:winapinls.obj
 0002:00005f18       ??_C@_1M@GHKGFEDF@?$AAi?$AAt?$AA?9?$AAi?$AAt?$AA?$AA@ 0000000180033f18     LIBCMT:winapinls.obj
 0002:00005f28       ??_C@_1M@NIEJCJJA@?$AAj?$AAa?$AA?9?$AAj?$AAp?$AA?$AA@ 0000000180033f28     LIBCMT:winapinls.obj
 0002:00005f38       ??_C@_1M@JILFNBIM@?$AAk?$AAa?$AA?9?$AAg?$AAe?$AA?$AA@ 0000000180033f38     LIBCMT:winapinls.obj
 0002:00005f48       ??_C@_1M@PACPMGPH@?$AAk?$AAk?$AA?9?$AAk?$AAz?$AA?$AA@ 0000000180033f48     LIBCMT:winapinls.obj
 0002:00005f58       ??_C@_1M@IELFGMHA@?$AAk?$AAn?$AA?9?$AAi?$AAn?$AA?$AA@ 0000000180033f58     LIBCMT:winapinls.obj
 0002:00005f68       ??_C@_1O@IBBJHCH@?$AAk?$AAo?$AAk?$AA?9?$AAi?$AAn?$AA?$AA@ 0000000180033f68     LIBCMT:winapinls.obj
 0002:00005f78       ??_C@_1M@DMHAEOGC@?$AAk?$AAo?$AA?9?$AAk?$AAr?$AA?$AA@ 0000000180033f78     LIBCMT:winapinls.obj
 0002:00005f88       ??_C@_1M@HBAHBIGA@?$AAk?$AAy?$AA?9?$AAk?$AAg?$AA?$AA@ 0000000180033f88     LIBCMT:winapinls.obj
 0002:00005f98       ??_C@_1M@KPMILCJG@?$AAl?$AAt?$AA?9?$AAl?$AAt?$AA?$AA@ 0000000180033f98     LIBCMT:winapinls.obj
 0002:00005fa8       ??_C@_1M@BDEKKCA@?$AAl?$AAv?$AA?9?$AAl?$AAv?$AA?$AA@ 0000000180033fa8     LIBCMT:winapinls.obj
 0002:00005fb8       ??_C@_1M@ELCKCCJJ@?$AAm?$AAi?$AA?9?$AAn?$AAz?$AA?$AA@ 0000000180033fb8     LIBCMT:winapinls.obj
 0002:00005fc8       ??_C@_1M@CBOOLAPA@?$AAm?$AAk?$AA?9?$AAm?$AAk?$AA?$AA@ 0000000180033fc8     LIBCMT:winapinls.obj
 0002:00005fd8       ??_C@_1M@GPHNBJKN@?$AAm?$AAl?$AA?9?$AAi?$AAn?$AA?$AA@ 0000000180033fd8     LIBCMT:winapinls.obj
 0002:00005fe8       ??_C@_1M@PABJILIG@?$AAm?$AAn?$AA?9?$AAm?$AAn?$AA?$AA@ 0000000180033fe8     LIBCMT:winapinls.obj
 0002:00005ff8       ??_C@_1M@FGBKKIPG@?$AAm?$AAr?$AA?9?$AAi?$AAn?$AA?$AA@ 0000000180033ff8     LIBCMT:winapinls.obj
 0002:00006008       ??_C@_1M@NDBPDDAL@?$AAm?$AAs?$AA?9?$AAb?$AAn?$AA?$AA@ 0000000180034008     LIBCMT:winapinls.obj
 0002:00006018       ??_C@_1M@OPIHOOPI@?$AAm?$AAs?$AA?9?$AAm?$AAy?$AA?$AA@ 0000000180034018     LIBCMT:winapinls.obj
 0002:00006028       ??_C@_1M@PPDBCNFM@?$AAm?$AAt?$AA?9?$AAm?$AAt?$AA?$AA@ 0000000180034028     LIBCMT:winapinls.obj
 0002:00006038       ??_C@_1M@KDJDKMDD@?$AAn?$AAb?$AA?9?$AAn?$AAo?$AA?$AA@ 0000000180034038     LIBCMT:winapinls.obj
 0002:00006048       ??_C@_1M@KFCFLMJP@?$AAn?$AAl?$AA?9?$AAb?$AAe?$AA?$AA@ 0000000180034048     LIBCMT:winapinls.obj
 0002:00006058       ??_C@_1M@KPOPDDGO@?$AAn?$AAl?$AA?9?$AAn?$AAl?$AA?$AA@ 0000000180034058     LIBCMT:winapinls.obj
 0002:00006068       ??_C@_1M@LJKPEMLN@?$AAn?$AAn?$AA?9?$AAn?$AAo?$AA?$AA@ 0000000180034068     LIBCMT:winapinls.obj
 0002:00006078       ??_C@_1M@BDGHHBFL@?$AAn?$AAs?$AA?9?$AAz?$AAa?$AA?$AA@ 0000000180034078     LIBCMT:winapinls.obj
 0002:00006088       ??_C@_1M@IDEHOAP@?$AAp?$AAa?$AA?9?$AAi?$AAn?$AA?$AA@ 0000000180034088     LIBCMT:winapinls.obj
 0002:00006098       ??_C@_1M@HDBKGOGH@?$AAp?$AAl?$AA?9?$AAp?$AAl?$AA?$AA@ 0000000180034098     LIBCMT:winapinls.obj
 0002:000060a8       ??_C@_1M@LJLLCMEH@?$AAp?$AAt?$AA?9?$AAb?$AAr?$AA?$AA@ 00000001800340a8     LIBCMT:winapinls.obj
 0002:000060b8       ??_C@_1M@NCMONAAL@?$AAp?$AAt?$AA?9?$AAp?$AAt?$AA?$AA@ 00000001800340b8     LIBCMT:winapinls.obj
 0002:000060c8       ??_C@_1O@EAKMAJDN@?$AAq?$AAu?$AAz?$AA?9?$AAb?$AAo?$AA?$AA@ 00000001800340c8     LIBCMT:winapinls.obj
 0002:000060d8       ??_C@_1O@BHHPIGDN@?$AAq?$AAu?$AAz?$AA?9?$AAe?$AAc?$AA?$AA@ 00000001800340d8     LIBCMT:winapinls.obj
 0002:000060e8       ??_C@_1O@GBAPEKMJ@?$AAq?$AAu?$AAz?$AA?9?$AAp?$AAe?$AA?$AA@ 00000001800340e8     LIBCMT:winapinls.obj
 0002:000060f8       ??_C@_1M@CLGLEFBO@?$AAr?$AAo?$AA?9?$AAr?$AAo?$AA?$AA@ 00000001800340f8     LIBCMT:winapinls.obj
 0002:00006108       ??_C@_1M@CEEDODME@?$AAr?$AAu?$AA?9?$AAr?$AAu?$AA?$AA@ 0000000180034108     LIBCMT:winapinls.obj
 0002:00006118       ??_C@_1M@HPKKKMPP@?$AAs?$AAa?$AA?9?$AAi?$AAn?$AA?$AA@ 0000000180034118     LIBCMT:winapinls.obj
 0002:00006128       ??_C@_1M@BKMAIGOJ@?$AAs?$AAe?$AA?9?$AAf?$AAi?$AA?$AA@ 0000000180034128     LIBCMT:winapinls.obj
 0002:00006138       ??_C@_1M@NDPIFLFI@?$AAs?$AAe?$AA?9?$AAn?$AAo?$AA?$AA@ 0000000180034138     LIBCMT:winapinls.obj
 0002:00006148       ??_C@_1M@DANKKHJ@?$AAs?$AAe?$AA?9?$AAs?$AAe?$AA?$AA@ 0000000180034148     LIBCMT:winapinls.obj
 0002:00006158       ??_C@_1M@PNBLONPJ@?$AAs?$AAk?$AA?9?$AAs?$AAk?$AA?$AA@ 0000000180034158     LIBCMT:winapinls.obj
 0002:00006168       ??_C@_1M@LFMODOAL@?$AAs?$AAl?$AA?9?$AAs?$AAi?$AA?$AA@ 0000000180034168     LIBCMT:winapinls.obj
 0002:00006178       ??_C@_1O@DFKOMPG@?$AAs?$AAm?$AAa?$AA?9?$AAn?$AAo?$AA?$AA@ 0000000180034178     LIBCMT:winapinls.obj
 0002:00006188       ??_C@_1O@NDKPBNNH@?$AAs?$AAm?$AAa?$AA?9?$AAs?$AAe?$AA?$AA@ 0000000180034188     LIBCMT:winapinls.obj
 0002:00006198       ??_C@_1O@PLLKBHAB@?$AAs?$AAm?$AAj?$AA?9?$AAn?$AAo?$AA?$AA@ 0000000180034198     LIBCMT:winapinls.obj
 0002:000061a8       ??_C@_1O@CLEPOGCA@?$AAs?$AAm?$AAj?$AA?9?$AAs?$AAe?$AA?$AA@ 00000001800341a8     LIBCMT:winapinls.obj
 0002:000061b8       ??_C@_1O@DLGJGKMK@?$AAs?$AAm?$AAn?$AA?9?$AAf?$AAi?$AA?$AA@ 00000001800341b8     LIBCMT:winapinls.obj
 0002:000061c8       ??_C@_1O@OJDJGAJC@?$AAs?$AAm?$AAs?$AA?9?$AAf?$AAi?$AA?$AA@ 00000001800341c8     LIBCMT:winapinls.obj
 0002:000061d8       ??_C@_1M@BOFOGHPB@?$AAs?$AAq?$AA?9?$AAa?$AAl?$AA?$AA@ 00000001800341d8     LIBCMT:winapinls.obj
 0002:000061e8       ??_C@_1BG@LJBBIPGB@?$AAs?$AAr?$AA?9?$AAb?$AAa?$AA?9?$AAc?$AAy?$AAr?$AAl?$AA?$AA@ 00000001800341e8     LIBCMT:winapinls.obj
 0002:00006200       ??_C@_1BG@JLBENFOE@?$AAs?$AAr?$AA?9?$AAb?$AAa?$AA?9?$AAl?$AAa?$AAt?$AAn?$AA?$AA@ 0000000180034200     LIBCMT:winapinls.obj
 0002:00006218       ??_C@_1BG@KODPNHE@?$AAs?$AAr?$AA?9?$AAs?$AAp?$AA?9?$AAc?$AAy?$AAr?$AAl?$AA?$AA@ 0000000180034218     LIBCMT:winapinls.obj
 0002:00006230       ??_C@_1BG@CIOGKHPB@?$AAs?$AAr?$AA?9?$AAs?$AAp?$AA?9?$AAl?$AAa?$AAt?$AAn?$AA?$AA@ 0000000180034230     LIBCMT:winapinls.obj
 0002:00006248       ??_C@_1M@NGFJLMAC@?$AAs?$AAv?$AA?9?$AAf?$AAi?$AA?$AA@ 0000000180034248     LIBCMT:winapinls.obj
 0002:00006258       ??_C@_1M@MPJEJAJC@?$AAs?$AAv?$AA?9?$AAs?$AAe?$AA?$AA@ 0000000180034258     LIBCMT:winapinls.obj
 0002:00006268       ??_C@_1M@MPNDHLFK@?$AAs?$AAw?$AA?9?$AAk?$AAe?$AA?$AA@ 0000000180034268     LIBCMT:winapinls.obj
 0002:00006278       ??_C@_1O@KOHBJJI@?$AAs?$AAy?$AAr?$AA?9?$AAs?$AAy?$AA?$AA@ 0000000180034278     LIBCMT:winapinls.obj
 0002:00006288       ??_C@_1M@LDCEFHA@?$AAt?$AAa?$AA?9?$AAi?$AAn?$AA?$AA@ 0000000180034288     LIBCMT:winapinls.obj
 0002:00006298       ??_C@_1M@CNJOFAK@?$AAt?$AAe?$AA?9?$AAi?$AAn?$AA?$AA@ 0000000180034298     LIBCMT:winapinls.obj
 0002:000062a8       ??_C@_1M@GNAECACD@?$AAt?$AAh?$AA?9?$AAt?$AAh?$AA?$AA@ 00000001800342a8     LIBCMT:winapinls.obj
 0002:000062b8       ??_C@_1M@CHBIHOJO@?$AAt?$AAn?$AA?9?$AAz?$AAa?$AA?$AA@ 00000001800342b8     LIBCMT:winapinls.obj
 0002:000062c8       ??_C@_1M@GCCMIGPJ@?$AAt?$AAr?$AA?9?$AAt?$AAr?$AA?$AA@ 00000001800342c8     LIBCMT:winapinls.obj
 0002:000062d8       ??_C@_1M@CELMCNBK@?$AAt?$AAt?$AA?9?$AAr?$AAu?$AA?$AA@ 00000001800342d8     LIBCMT:winapinls.obj
 0002:000062e8       ??_C@_1M@KLMCELGA@?$AAu?$AAk?$AA?9?$AAu?$AAa?$AA?$AA@ 00000001800342e8     LIBCMT:winapinls.obj
 0002:000062f8       ??_C@_1M@EPAJJAJF@?$AAu?$AAr?$AA?9?$AAp?$AAk?$AA?$AA@ 00000001800342f8     LIBCMT:winapinls.obj
 0002:00006308       ??_C@_1BG@GEGPMCDJ@?$AAu?$AAz?$AA?9?$AAu?$AAz?$AA?9?$AAc?$AAy?$AAr?$AAl?$AA?$AA@ 0000000180034308     LIBCMT:winapinls.obj
 0002:00006320       ??_C@_1BG@EGGKJILM@?$AAu?$AAz?$AA?9?$AAu?$AAz?$AA?9?$AAl?$AAa?$AAt?$AAn?$AA?$AA@ 0000000180034320     LIBCMT:winapinls.obj
 0002:00006338       ??_C@_1M@GFOCLFF@?$AAv?$AAi?$AA?9?$AAv?$AAn?$AA?$AA@ 0000000180034338     LIBCMT:winapinls.obj
 0002:00006348       ??_C@_1M@CPAMEDFI@?$AAx?$AAh?$AA?9?$AAz?$AAa?$AA?$AA@ 0000000180034348     LIBCMT:winapinls.obj
 0002:00006358       ??_C@_1O@EBKIFIGN@?$AAz?$AAh?$AA?9?$AAc?$AAh?$AAs?$AA?$AA@ 0000000180034358     LIBCMT:winapinls.obj
 0002:00006368       ??_C@_1O@NMHPGANE@?$AAz?$AAh?$AA?9?$AAc?$AAh?$AAt?$AA?$AA@ 0000000180034368     LIBCMT:winapinls.obj
 0002:00006378       ??_C@_1M@LPINJOMC@?$AAz?$AAh?$AA?9?$AAc?$AAn?$AA?$AA@ 0000000180034378     LIBCMT:winapinls.obj
 0002:00006388       ??_C@_1M@OCJEJODD@?$AAz?$AAh?$AA?9?$AAh?$AAk?$AA?$AA@ 0000000180034388     LIBCMT:winapinls.obj
 0002:00006398       ??_C@_1M@DNDLJINH@?$AAz?$AAh?$AA?9?$AAm?$AAo?$AA?$AA@ 0000000180034398     LIBCMT:winapinls.obj
 0002:000063a8       ??_C@_1M@MBFDNDND@?$AAz?$AAh?$AA?9?$AAs?$AAg?$AA?$AA@ 00000001800343a8     LIBCMT:winapinls.obj
 0002:000063b8       ??_C@_1M@IMEPLEPE@?$AAz?$AAh?$AA?9?$AAt?$AAw?$AA?$AA@ 00000001800343b8     LIBCMT:winapinls.obj
 0002:000063c8       ??_C@_1M@BBGHNHJP@?$AAz?$AAu?$AA?9?$AAz?$AAa?$AA?$AA@ 00000001800343c8     LIBCMT:winapinls.obj
 0002:000063f0       ??_C@_03KHJOGHMM@exp?$AA@  00000001800343f0     LIBCMT:fpexcept.obj
 0002:000063f4       ??_C@_03JGHBODFD@pow?$AA@  00000001800343f4     LIBCMT:fpexcept.obj
 0002:000063f8       ??_C@_03MGHMBJCF@log?$AA@  00000001800343f8     LIBCMT:fpexcept.obj
 0002:000063fc       ??_C@_05HGHHAHAP@log10?$AA@ 00000001800343fc     LIBCMT:fpexcept.obj
 0002:00006404       ??_C@_04COOMCNPB@sinh?$AA@ 0000000180034404     LIBCMT:fpexcept.obj
 0002:0000640c       ??_C@_04HPJJNFIM@cosh?$AA@ 000000018003440c     LIBCMT:fpexcept.obj
 0002:00006414       ??_C@_04FJHINJAO@tanh?$AA@ 0000000180034414     LIBCMT:fpexcept.obj
 0002:0000641c       ??_C@_04FIHNOPOL@asin?$AA@ 000000018003441c     LIBCMT:fpexcept.obj
 0002:00006424       ??_C@_04PDIFKINK@acos?$AA@ 0000000180034424     LIBCMT:fpexcept.obj
 0002:0000642c       ??_C@_04MLLJIGOK@atan?$AA@ 000000018003442c     LIBCMT:fpexcept.obj
 0002:00006434       ??_C@_05KNGEOGJB@atan2?$AA@ 0000000180034434     LIBCMT:fpexcept.obj
 0002:0000643c       ??_C@_04EIAKFFMI@sqrt?$AA@ 000000018003443c     LIBCMT:fpexcept.obj
 0002:00006444       ??_C@_03BLEJJJBH@sin?$AA@  0000000180034444     LIBCMT:fpexcept.obj
 0002:00006448       ??_C@_03LALBNOCG@cos?$AA@  0000000180034448     LIBCMT:fpexcept.obj
 0002:0000644c       ??_C@_03IIINPABG@tan?$AA@  000000018003444c     LIBCMT:fpexcept.obj
 0002:00006450       ??_C@_04GFPJNGEK@ceil?$AA@ 0000000180034450     LIBCMT:fpexcept.obj
 0002:00006458       ??_C@_05PBJFFIGL@floor?$AA@ 0000000180034458     LIBCMT:fpexcept.obj
 0002:00006460       ??_C@_04ODHECPBC@fabs?$AA@ 0000000180034460     LIBCMT:fpexcept.obj
 0002:00006468       ??_C@_04EHEDPDJG@modf?$AA@ 0000000180034468     LIBCMT:fpexcept.obj
 0002:00006470       ??_C@_05CEJMAHNP@ldexp?$AA@ 0000000180034470     LIBCMT:fpexcept.obj
 0002:00006478       ??_C@_05KBKMEMPO@_cabs?$AA@ 0000000180034478     LIBCMT:fpexcept.obj
 0002:00006480       ??_C@_04KEPJIHGP@fmod?$AA@ 0000000180034480     LIBCMT:fpexcept.obj
 0002:00006488       ??_C@_05GKKHEGJL@frexp?$AA@ 0000000180034488     LIBCMT:fpexcept.obj
 0002:00006490       ??_C@_03MJLDFKDL@_y0?$AA@  0000000180034490     LIBCMT:fpexcept.obj
 0002:00006494       ??_C@_03NAKIGLHK@_y1?$AA@  0000000180034494     LIBCMT:fpexcept.obj
 0002:00006498       ??_C@_03ONILCKOB@_yn?$AA@  0000000180034498     LIBCMT:fpexcept.obj
 0002:0000649c       ??_C@_05JGDBENOH@_logb?$AA@ 000000018003449c     LIBCMT:fpexcept.obj
 0002:000064a8       ??_C@_0L@KDOEJCKC@_nextafter?$AA@ 00000001800344a8     LIBCMT:fpexcept.obj
 0002:000067d8       ??_C@_08EHJDFFNH@__based?$CI?$AA@ 00000001800347d8     LIBCMT:undname.obj
 0002:000067e8       ??_C@_07KOLFKCDI@__cdecl?$AA@ 00000001800347e8     LIBCMT:undname.obj
 0002:000067f0       ??_C@_08GHMPAG@__pascal?$AA@ 00000001800347f0     LIBCMT:undname.obj
 0002:00006800       ??_C@_09IFJBGAPI@__stdcall?$AA@ 0000000180034800     LIBCMT:undname.obj
 0002:00006810       ??_C@_0L@NPHFGOKO@__thiscall?$AA@ 0000000180034810     LIBCMT:undname.obj
 0002:00006820       ??_C@_0L@JMKHOMEK@__fastcall?$AA@ 0000000180034820     LIBCMT:undname.obj
 0002:00006830       ??_C@_0N@BCKKPABJ@__vectorcall?$AA@ 0000000180034830     LIBCMT:undname.obj
 0002:00006840       ??_C@_09HIJEGCPM@__clrcall?$AA@ 0000000180034840     LIBCMT:undname.obj
 0002:0000684c       ??_C@_06GHPCKEAG@__eabi?$AA@ 000000018003484c     LIBCMT:undname.obj
 0002:00006858       ??_C@_07JOMMBBKO@__ptr64?$AA@ 0000000180034858     LIBCMT:undname.obj
 0002:00006860       ??_C@_0L@PILCLIHE@__restrict?$AA@ 0000000180034860     LIBCMT:undname.obj
 0002:00006870       ??_C@_0M@GFIIJFMG@__unaligned?$AA@ 0000000180034870     LIBCMT:undname.obj
 0002:00006880       ??_C@_09DHDLOLLB@restrict?$CI?$AA@ 0000000180034880     LIBCMT:undname.obj
 0002:0000688c       ??_C@_04NIHEBCM@?5new?$AA@ 000000018003488c     LIBCMT:undname.obj
 0002:00006898       ??_C@_07FPCDHGMM@?5delete?$AA@ 0000000180034898     LIBCMT:undname.obj
 0002:000068a0       ??_C@_01NEMOKFLO@?$DN?$AA@ 00000001800348a0     LIBCMT:undname.obj
 0002:000068a4       ??_C@_02GPIOPFAK@?$DO?$DO?$AA@ 00000001800348a4     LIBCMT:undname.obj
 0002:000068a8       ??_C@_02FODMEDOG@?$DM?$DM?$AA@ 00000001800348a8     LIBCMT:undname.obj
 0002:000068ac       ??_C@_01DCLJPIOD@?$CB?$AA@ 00000001800348ac     LIBCMT:undname.obj
 0002:000068b0       ??_C@_02EGOFBIJA@?$DN?$DN?$AA@ 00000001800348b0     LIBCMT:undname.obj
 0002:000068b4       ??_C@_02FDNJECIE@?$CB?$DN?$AA@ 00000001800348b4     LIBCMT:undname.obj
 0002:000068b8       ??_C@_02GPECMEKF@?$FL?$FN?$AA@ 00000001800348b8     LIBCMT:undname.obj
 0002:000068c0       ??_C@_08LHJFAFGD@operator?$AA@ 00000001800348c0     LIBCMT:undname.obj
 0002:000068cc       ??_C@_02HBOOOICD@?9?$DO?$AA@ 00000001800348cc     LIBCMT:undname.obj
 0002:000068d0       ??_C@_01NBENCBCI@?$CK?$AA@ 00000001800348d0     LIBCMT:undname.obj
 0002:000068d4       ??_C@_02ECNGHCIF@?$CL?$CL?$AA@ 00000001800348d4     LIBCMT:undname.obj
 0002:000068d8       ??_C@_02BAABKJLB@?9?9?$AA@ 00000001800348d8     LIBCMT:undname.obj
 0002:000068dc       ??_C@_01JOAMLHOP@?9?$AA@   00000001800348dc     LIBCMT:undname.obj
 0002:000068e0       ??_C@_01MIFGBAGJ@?$CL?$AA@ 00000001800348e0     LIBCMT:undname.obj
 0002:000068e4       ??_C@_01HNPIGOCE@?$CG?$AA@ 00000001800348e4     LIBCMT:undname.obj
 0002:000068e8       ??_C@_03MNHNFDLC@?9?$DO?$CK?$AA@ 00000001800348e8     LIBCMT:undname.obj
 0002:000068ec       ??_C@_01KMDKNFGN@?1?$AA@   00000001800348ec     LIBCMT:undname.obj
 0002:000068f0       ??_C@_01FGNFDNOH@?$CF?$AA@ 00000001800348f0     LIBCMT:undname.obj
 0002:000068f4       ??_C@_01MNNFJEPP@?$DM?$AA@ 00000001800348f4     LIBCMT:undname.obj
 0002:000068f8       ??_C@_02EHCHHCKH@?$DM?$DN?$AA@ 00000001800348f8     LIBCMT:undname.obj
 0002:000068fc       ??_C@_01PPODPGHN@?$DO?$AA@ 00000001800348fc     LIBCMT:undname.obj
 0002:00006900       ??_C@_02EEKDKGMJ@?$DO?$DN?$AA@ 0000000180034900     LIBCMT:undname.obj
 0002:00006904       ??_C@_01IHBHIGKO@?0?$AA@   0000000180034904     LIBCMT:undname.obj
 0002:00006908       ??_C@_02HCKGKOFO@?$CI?$CJ?$AA@ 0000000180034908     LIBCMT:undname.obj
 0002:0000690c       ??_C@_01PJKLJHI@?$HO?$AA@  000000018003490c     LIBCMT:undname.obj
 0002:00006910       ??_C@_01JKBOJNNK@?$FO?$AA@ 0000000180034910     LIBCMT:undname.obj
 0002:00006914       ??_C@_01DNKMNLPK@?$HM?$AA@ 0000000180034914     LIBCMT:undname.obj
 0002:00006918       ??_C@_02PPKAJPJL@?$CG?$CG?$AA@ 0000000180034918     LIBCMT:undname.obj
 0002:0000691c       ??_C@_02NONPIBCD@?$HM?$HM?$AA@ 000000018003491c     LIBCMT:undname.obj
 0002:00006920       ??_C@_02FPIMKNGF@?$CK?$DN?$AA@ 0000000180034920     LIBCMT:undname.obj
 0002:00006924       ??_C@_02FOEOMHFC@?$CL?$DN?$AA@ 0000000180034924     LIBCMT:undname.obj
 0002:00006928       ??_C@_02FKMDLLOA@?9?$DN?$AA@ 0000000180034928     LIBCMT:undname.obj
 0002:0000692c       ??_C@_02FJEHGPIO@?1?$DN?$AA@ 000000018003492c     LIBCMT:undname.obj
 0002:00006930       ??_C@_02FENAOKFI@?$CF?$DN?$AA@ 0000000180034930     LIBCMT:undname.obj
 0002:00006934       ??_C@_03IKFCCPFF@?$DO?$DO?$DN?$AA@ 0000000180034934     LIBCMT:undname.obj
 0002:00006938       ??_C@_03CDNPDDLA@?$DM?$DM?$DN?$AA@ 0000000180034938     LIBCMT:undname.obj
 0002:0000693c       ??_C@_02FGJGFEAB@?$CG?$DN?$AA@ 000000018003493c     LIBCMT:undname.obj
 0002:00006940       ??_C@_02DHLNPPGH@?$HM?$DN?$AA@ 0000000180034940     LIBCMT:undname.obj
 0002:00006944       ??_C@_02MHEGNOJ@?$FO?$DN?$AA@ 0000000180034944     LIBCMT:undname.obj
 0002:00006948       ??_C@_09IFPLHPGF@?$GAvftable?8?$AA@ 0000000180034948     LIBCMT:undname.obj
 0002:00006958       ??_C@_09BLBHBJP@?$GAvbtable?8?$AA@ 0000000180034958     LIBCMT:undname.obj
 0002:00006968       ??_C@_07FEEIOKP@?$GAvcall?8?$AA@ 0000000180034968     LIBCMT:undname.obj
 0002:00006970       ??_C@_08LLFFHHDJ@?$GAtypeof?8?$AA@ 0000000180034970     LIBCMT:undname.obj
 0002:00006980       ??_C@_0BF@KDPPACIK@?$GAlocal?5static?5guard?8?$AA@ 0000000180034980     LIBCMT:undname.obj
 0002:00006998       ??_C@_08OBABFOLI@?$GAstring?8?$AA@ 0000000180034998     LIBCMT:undname.obj
 0002:000069a8       ??_C@_0BD@JDLKDPAB@?$GAvbase?5destructor?8?$AA@ 00000001800349a8     LIBCMT:undname.obj
 0002:000069c0       ??_C@_0BN@DEGPLNFK@?$GAvector?5deleting?5destructor?8?$AA@ 00000001800349c0     LIBCMT:undname.obj
 0002:000069e0       ??_C@_0BO@OBMKPJIG@?$GAdefault?5constructor?5closure?8?$AA@ 00000001800349e0     LIBCMT:undname.obj
 0002:00006a00       ??_C@_0BN@IMDCHIKM@?$GAscalar?5deleting?5destructor?8?$AA@ 0000000180034a00     LIBCMT:undname.obj
 0002:00006a20       ??_C@_0BO@PFGOCPJJ@?$GAvector?5constructor?5iterator?8?$AA@ 0000000180034a20     LIBCMT:undname.obj
 0002:00006a40       ??_C@_0BN@LFPFMEDL@?$GAvector?5destructor?5iterator?8?$AA@ 0000000180034a40     LIBCMT:undname.obj
 0002:00006a60       ??_C@_0CE@IKBNEHA@?$GAvector?5vbase?5constructor?5iterat@ 0000000180034a60     LIBCMT:undname.obj
 0002:00006a88       ??_C@_0BL@NILFHHPC@?$GAvirtual?5displacement?5map?8?$AA@ 0000000180034a88     LIBCMT:undname.obj
 0002:00006aa8       ??_C@_0CB@JONCMFFK@?$GAeh?5vector?5constructor?5iterator?8@ 0000000180034aa8     LIBCMT:undname.obj
 0002:00006ad0       ??_C@_0CA@GCEOPDGL@?$GAeh?5vector?5destructor?5iterator?8?$AA@ 0000000180034ad0     LIBCMT:undname.obj
 0002:00006af0       ??_C@_0CH@OOJPLCPH@?$GAeh?5vector?5vbase?5constructor?5ite@ 0000000180034af0     LIBCMT:undname.obj
 0002:00006b18       ??_C@_0BL@LLKPOHJI@?$GAcopy?5constructor?5closure?8?$AA@ 0000000180034b18     LIBCMT:undname.obj
 0002:00006b38       ??_C@_0BA@KBCDOMBN@?$GAudt?5returning?8?$AA@ 0000000180034b38     LIBCMT:undname.obj
 0002:00006b48       ??_C@_03KLGMFNMG@?$GAEH?$AA@ 0000000180034b48     LIBCMT:undname.obj
 0002:00006b4c       ??_C@_05KHLCHHI@?$GARTTI?$AA@ 0000000180034b4c     LIBCMT:undname.obj
 0002:00006b58       ??_C@_0BA@KKLDJDLB@?$GAlocal?5vftable?8?$AA@ 0000000180034b58     LIBCMT:undname.obj
 0002:00006b68       ??_C@_0CE@IIHCMGGL@?$GAlocal?5vftable?5constructor?5closu@ 0000000180034b68     LIBCMT:undname.obj
 0002:00006b8c       ??_C@_06FHBGPFGH@?5new?$FL?$FN?$AA@ 0000000180034b8c     LIBCMT:undname.obj
 0002:00006b98       ??_C@_09LBNFPBCA@?5delete?$FL?$FN?$AA@ 0000000180034b98     LIBCMT:undname.obj
 0002:00006ba8       ??_C@_0P@HJKNJFNN@?$GAomni?5callsig?8?$AA@ 0000000180034ba8     LIBCMT:undname.obj
 0002:00006bb8       ??_C@_0BL@CNOONJFP@?$GAplacement?5delete?5closure?8?$AA@ 0000000180034bb8     LIBCMT:undname.obj
 0002:00006bd8       ??_C@_0BN@CKNJLHMB@?$GAplacement?5delete?$FL?$FN?5closure?8?$AA@ 0000000180034bd8     LIBCMT:undname.obj
 0002:00006bf8       ??_C@_0CG@CFDHKGGD@?$GAmanaged?5vector?5constructor?5iter@ 0000000180034bf8     LIBCMT:undname.obj
 0002:00006c20       ??_C@_0CF@IMGKMJNO@?$GAmanaged?5vector?5destructor?5itera@ 0000000180034c20     LIBCMT:undname.obj
 0002:00006c48       ??_C@_0CG@HLDDJMAG@?$GAeh?5vector?5copy?5constructor?5iter@ 0000000180034c48     LIBCMT:undname.obj
 0002:00006c70       ??_C@_0CM@FCBBDIGB@?$GAeh?5vector?5vbase?5copy?5constructo@ 0000000180034c70     LIBCMT:undname.obj
 0002:00006ca0       ??_C@_0BL@CLIPGLGB@?$GAdynamic?5initializer?5for?5?8?$AA@ 0000000180034ca0     LIBCMT:undname.obj
 0002:00006cc0       ??_C@_0CB@PDBIFEP@?$GAdynamic?5atexit?5destructor?5for?5?8@ 0000000180034cc0     LIBCMT:undname.obj
 0002:00006ce8       ??_C@_0CD@CGAJBKEJ@?$GAvector?5copy?5constructor?5iterato@ 0000000180034ce8     LIBCMT:undname.obj
 0002:00006d10       ??_C@_0CJ@GJELGAMM@?$GAvector?5vbase?5copy?5constructor?5i@ 0000000180034d10     LIBCMT:undname.obj
 0002:00006d40       ??_C@_0CL@FGIJHLCE@?$GAmanaged?5vector?5copy?5constructor@ 0000000180034d40     LIBCMT:undname.obj
 0002:00006d70       ??_C@_0BM@PMGGMLDN@?$GAlocal?5static?5thread?5guard?8?$AA@ 0000000180034d70     LIBCMT:undname.obj
 0002:00006d90       ??_C@_0BC@DAFEJGAK@?5Type?5Descriptor?8?$AA@ 0000000180034d90     LIBCMT:undname.obj
 0002:00006da8       ??_C@_0BM@LDKODKLH@?5Base?5Class?5Descriptor?5at?5?$CI?$AA@ 0000000180034da8     LIBCMT:undname.obj
 0002:00006dc8       ??_C@_0BD@LGICGFMM@?5Base?5Class?5Array?8?$AA@ 0000000180034dc8     LIBCMT:undname.obj
 0002:00006de0       ??_C@_0BN@MECKDCOJ@?5Class?5Hierarchy?5Descriptor?8?$AA@ 0000000180034de0     LIBCMT:undname.obj
 0002:00006e00       ??_C@_0BK@CFCOFLF@?5Complete?5Object?5Locator?8?$AA@ 0000000180034e00     LIBCMT:undname.obj
 0002:00006e20       __newctype                 0000000180034e20     LIBCMT:ctype.obj
 0002:00007120       _wctype                    0000000180035120     LIBCMT:ctype.obj
 0002:00007330       __newclmap                 0000000180035330     LIBCMT:ctype.obj
 0002:000074b0       __newcumap                 00000001800354b0     LIBCMT:ctype.obj
 0002:00007630       __rg_language_count        0000000180035630     LIBCMT:getqloc.obj
 0002:00007634       __rg_country_count         0000000180035634     LIBCMT:getqloc.obj
 0002:00007638       ??_C@_0M@HHGEPIBF@CreateFile2?$AA@ 0000000180035638     LIBCMT:wopen.obj
 0002:00007644       ??_C@_06PGGFOGJG@1?$CDSNAN?$AA@ 0000000180035644     LIBCMT:x10fout.obj
 0002:0000764c       ??_C@_05PHHOCPM@1?$CDIND?$AA@ 000000018003564c     LIBCMT:x10fout.obj
 0002:00007654       ??_C@_05DNEBIAHO@1?$CDINF?$AA@ 0000000180035654     LIBCMT:x10fout.obj
 0002:0000765c       ??_C@_06IMKFLFPG@1?$CDQNAN?$AA@ 000000018003565c     LIBCMT:x10fout.obj
 0002:00007668       ??_C@_1BA@BALFACEM@?$AAC?$AAO?$AAN?$AAO?$AAU?$AAT?$AA$?$AA?$AA@ 0000000180035668     LIBCMT:initcon.obj
 0002:00007678       ??_C@_0BA@JFNIOLAK@string?5too?5long?$AA@ 0000000180035678     init.obj
 0002:00007688       ??_C@_0BG@JLCLBMDJ@?4?4?2src?2image?2init?4cpp?$AA@ 0000000180035688     init.obj
 0002:000076a0       ??_C@_0L@MLPPNEHD@lwip_image?$AA@ 00000001800356a0     init.obj
 0002:000076b0       ??_C@_0BI@CFPLBAOH@invalid?5string?5position?$AA@ 00000001800356b0     init.obj
 0002:00016020       ??_7LwipImage@@6B@         0000000180044020     image.obj
 0002:00016038       ??_7CImgArgumentException@cimg_library@@6B@ 0000000180044038     image.obj
 0002:00016038       ??_7CImgInstanceException@cimg_library@@6B@ 0000000180044038     image.obj
 0002:00016038       ??_7CImgIOException@cimg_library@@6B@ 0000000180044038     image.obj
 0002:00016038       ??_7CImgException@cimg_library@@6B@ 0000000180044038     image.obj
 0002:00016050       ??_7exception@stdext@@6B@  0000000180044050     image.obj
 0002:00016068       ??_7ObjectWrap@node@@6B@   0000000180044068     image.obj
 0002:00016080       ??_C@_0BC@BDKFLDHL@unknown?5exception?$AA@ 0000000180044080     image.obj
 0002:00016092       ??_C@_00CNPNBAHC@?$AA@     0000000180044092     image.obj
 0002:000160a0       ??_C@_1IC@NFIFAOEN@?$AAC?$AA?3?$AA?2?$AAU?$AAs?$AAe?$AAr?$AAs?$AA?2?$AAM?$AAa?$AAr?$AAi?$AAu?$AAs?$AAz?$AA?2?$AA?4?$AAn?$AAo?$AAd?$AAe?$AA?9?$AAg?$AAy?$AAp?$AA?2?$AA4?$AA?4?$AA2?$AA?4?$AA1@ 00000001800440a0     image.obj
 0002:00016128       ??_C@_1DG@OKCGPKIB@?$AAp?$AAe?$AAr?$AAs?$AAi?$AAs?$AAt?$AAe?$AAn?$AAt?$AA?$CI?$AA?$CJ?$AA?4?$AAI?$AAs?$AAN?$AAe?$AAa?$AAr?$AAD?$AAe?$AAa?$AAt?$AAh?$AA?$CI?$AA?$CJ?$AA?$AA@ 0000000180044128     image.obj
 0002:00016160       ??_C@_1CO@EGNPJLKI@?$AAp?$AAe?$AAr?$AAs?$AAi?$AAs?$AAt?$AAe?$AAn?$AAt?$AA?$CI?$AA?$CJ?$AA?4?$AAI?$AAs?$AAE?$AAm?$AAp?$AAt?$AAy?$AA?$CI?$AA?$CJ?$AA?$AA@ 0000000180044160     image.obj
 0002:00016190       ??_C@_1EC@NOLNIHNJ@?$AAh?$AAa?$AAn?$AAd?$AAl?$AAe?$AA?9?$AA?$DO?$AAI?$AAn?$AAt?$AAe?$AAr?$AAn?$AAa?$AAl?$AAF?$AAi?$AAe?$AAl?$AAd?$AAC?$AAo?$AAu?$AAn?$AAt?$AA?$CI?$AA?$CJ?$AA?5?$AA?$DO?$AA?5?$AA0@ 0000000180044190     image.obj
 0002:000161d8       ??_C@_1DA@FBGAEOIO@?$AA?$CB?$AAp?$AAe?$AAr?$AAs?$AAi?$AAs?$AAt?$AAe?$AAn?$AAt?$AA?$CI?$AA?$CJ?$AA?4?$AAI?$AAs?$AAE?$AAm?$AAp?$AAt?$AAy?$AA?$CI?$AA?$CJ?$AA?$AA@ 00000001800441d8     image.obj
 0002:00016208       ??_C@_1CO@JCKLEFMA@?$AA?$CB?$AAp?$AAe?$AAr?$AAs?$AAi?$AAs?$AAt?$AAe?$AAn?$AAt?$AA?$CI?$AA?$CJ?$AA?4?$AAI?$AAs?$AAW?$AAe?$AAa?$AAk?$AA?$CI?$AA?$CJ?$AA?$AA@ 0000000180044208     image.obj
 0002:00016238       ??_C@_1BE@GMLLOIPJ@?$AAr?$AAe?$AAf?$AAs?$AA_?$AA?5?$AA?$DO?$AA?5?$AA0?$AA?$AA@ 0000000180044238     image.obj
 0002:00016250       ??_C@_1CC@GBFLAAPF@?$AAw?$AAr?$AAa?$AAp?$AA?9?$AA?$DO?$AAr?$AAe?$AAf?$AAs?$AA_?$AA?5?$AA?$DN?$AA?$DN?$AA?5?$AA0?$AA?$AA@ 0000000180044250     image.obj
 0002:00016278       ??_C@_1DI@ELDBKNAK@?$AAw?$AAr?$AAa?$AAp?$AA?9?$AA?$DO?$AAh?$AAa?$AAn?$AAd?$AAl?$AAe?$AA_?$AA?4?$AAI?$AAs?$AAN?$AAe?$AAa?$AAr?$AAD?$AAe?$AAa?$AAt?$AAh?$AA?$CI?$AA?$CJ?$AA?$AA@ 0000000180044278     image.obj
 0002:000162b0       ??_C@_1IM@GACIBGHJ@?$AAd?$AAa?$AAt?$AAa?$AA?4?$AAG?$AAe?$AAt?$AAV?$AAa?$AAl?$AAu?$AAe?$AA?$CI?$AA?$CJ?$AA?5?$AA?$DN?$AA?$DN?$AA?5?$AAv?$AA8?$AA?3?$AA?3?$AAL?$AAo?$AAc?$AAa?$AAl?$AA?$DM?$AAv?$AA8?$AA?3@ 00000001800442b0     image.obj
 0002:00016340       ??_C@_1IA@POJFCDEN@?$AAD?$AA?3?$AA?2?$AAr?$AAe?$AAp?$AAo?$AA?2?$AAa?$AAp?$AAp?$AA?2?$AAA?$AAp?$AAp?$AA?2?$AAW?$AAo?$AAr?$AAk?$AAe?$AAr?$AA?2?$AAn?$AAo?$AAd?$AAe?$AA_?$AAm?$AAo?$AAd?$AAu@ 0000000180044340     image.obj
 0002:000163c0       ??_C@_1FM@LOELJOFK@?$AAs?$AAi?$AAz?$AAe?$AA?5?$AA?$DM?$AA?$DN?$AA?5?$AAi?$AAm?$AAp?$AA?3?$AA?3?$AAk?$AAM?$AAa?$AAx?$AAL?$AAe?$AAn?$AAg?$AAt?$AAh?$AA?5?$AA?$CG?$AA?$CG?$AA?5?$AA?$CC?$AAt?$AAo?$AAo?$AA?5@ 00000001800443c0     image.obj
 0002:00016420       ??_C@_07CIFAGBMG@unknown?$AA@ 0000000180044420     image.obj
 0002:00016428       ??_C@_0BL@EAGPGGJL@?6?$CFs?$FLCImg?$FN?5?$CK?$CK?$CK?5?$CFs?5?$CK?$CK?$CK?$CFs?5?$CFs?6?$AA@ 0000000180044428     image.obj
 0002:00016448       ??_C@_0BG@KMDADBLO@CImgArgumentException?$AA@ 0000000180044448     image.obj
 0002:00016460       ??_C@_0BG@IOCOPDAE@CImgInstanceException?$AA@ 0000000180044460     image.obj
 0002:00016478       ??_C@_0BA@EFAPIJMM@CImgIOException?$AA@ 0000000180044478     image.obj
 0002:00016488       ??_C@_02DKCKIIND@?$CFs?$AA@ 0000000180044488     image.obj
 0002:00016490       ??_C@_0O@PPAIJIHF@unsigned?5char?$AA@ 0000000180044490     image.obj
 0002:000164a0       ??_C@_04ENMBGAPA@char?$AA@ 00000001800444a0     image.obj
 0002:000164a8       ??_C@_0BO@KMOFCCNE@?6?$CFs?$FLCImg?$FN?5?$CK?$CK?$CK?5Warning?5?$CK?$CK?$CK?$CFs?$CFs?$AA@ 00000001800444a8     image.obj
 0002:000164c8       ??_C@_07LDLFNPGN@Windows?$AA@ 00000001800444c8     image.obj
 0002:000164d0       ??_C@_0CK@NEJGLCGN@cimg?3?3fclose?$CI?$CJ?3?5Specified?5file?5i@ 00000001800444d0     image.obj
 0002:00016500       ??_C@_0DM@IBNMJMCA@cimg?3?3fclose?$CI?$CJ?3?5Error?5code?5?$CFd?5re@ 0000000180044500     image.obj
 0002:0001653c       ??_C@_02GMLFBBN@wb?$AA@    000000018004453c     image.obj
 0002:00016540       ??_C@_08LHEBGCMC@08?300?331?$AA@ 0000000180044540     image.obj
 0002:00016550       ??_C@_0M@NAMDCJOM@Jan?518?52016?$AA@ 0000000180044550     image.obj
 0002:00016560       ??_C@_0EO@PPEPCMLA@?6?5?$CFs?$CFsCImg?5Library?5?$CFu?4?$CFu?4?$CFu?$CFs?0?5c@ 0000000180044560     image.obj
 0002:000165b0       ??_C@_0DK@CAOOHPPH@?5?5?$DO?5Operating?5System?3?5?5?5?5?5?5?5?$CFs?$CF?9@ 00000001800445b0     image.obj
 0002:000165ec       ??_C@_06HPILLNHM@Little?$AA@ 00000001800445ec     image.obj
 0002:000165f8       ??_C@_0CL@MALEOICL@?5?5?$DO?5CPU?5endianness?3?5?5?5?5?5?5?5?5?5?$CFs?$CFs@ 00000001800445f8     image.obj
 0002:00016624       ??_C@_05PLLMOHAB@Quiet?$AA@ 0000000180044624     image.obj
 0002:00016630       ??_C@_0EB@IDKGNHGM@?5?5?$DO?5Verbosity?5mode?3?5?5?5?5?5?5?5?5?5?$CFs?$CF?9@ 0000000180044630     image.obj
 0002:00016678       ??_C@_09MLGAJAED@undefined?$AA@ 0000000180044678     image.obj
 0002:00016684       ??_C@_02JINPPBEP@No?$AA@   0000000180044684     image.obj
 0002:00016690       ??_C@_0EH@LAGENLPE@?5?5?$DO?5Stricts?5warnings?3?5?5?5?5?5?5?5?$CFs?$CF?9@ 0000000180044690     image.obj
 0002:000166e0       ??_C@_0EB@JAEOMHJH@?5?5?$DO?5Using?5VT100?5messages?3?5?5?5?$CFs?$CF?9@ 00000001800446e0     image.obj
 0002:00016728       ??_C@_0L@EKKILCGA@No?5display?$AA@ 0000000180044728     image.obj
 0002:00016738       ??_C@_0DP@CBALMADN@?5?5?$DO?5Display?5type?3?5?5?5?5?5?5?5?5?5?5?5?$CFs?$CF?9@ 0000000180044738     image.obj
 0002:00016780       ??_C@_0EC@DJMNKPJN@?5?5?$DO?5Using?5OpenMP?3?5?5?5?5?5?5?5?5?5?5?5?$CFs?$CF?9@ 0000000180044780     image.obj
 0002:000167c8       ??_C@_0DP@ELDHPPAH@?5?5?$DO?5Using?5PNG?5library?3?5?5?5?5?5?5?$CFs?$CF?9@ 00000001800447c8     image.obj
 0002:00016810       ??_C@_0EA@BIPAABKJ@?5?5?$DO?5Using?5JPEG?5library?3?5?5?5?5?5?$CFs?$CF?9@ 0000000180044810     image.obj
 0002:00016850       ??_C@_0EA@GNPBIGKO@?5?5?$DO?5Using?5TIFF?5library?3?5?5?5?5?5?$CFs?$CF?9@ 0000000180044850     image.obj
 0002:00016890       ??_C@_0EC@LHFPOJJ@?5?5?$DO?5Using?5Magick?$CL?$CL?5library?3?5?$CFs?$CF?9@ 0000000180044890     image.obj
 0002:000168e0       ??_C@_0EB@IMBGEGC@?5?5?$DO?5Using?5FFTW3?5library?3?5?5?5?5?$CFs?$CF?9@ 00000001800448e0     image.obj
 0002:00016930       ??_C@_0EC@EDAJEHKG@?5?5?$DO?5Using?5LAPACK?5library?3?5?5?5?$CFs?$CF?9@ 0000000180044930     image.obj
 0002:00016978       ??_C@_09KDOGNJMJ@?$CC?$CF?41020s?$CC?$AA@ 0000000180044978     image.obj
 0002:00016988       ??_C@_0CH@JOMNENBJ@?5?5?$DO?5Path?5of?5ImageMagick?3?5?5?5?5?$CFs?$CF?9@ 0000000180044988     image.obj
 0002:000169b0       ??_C@_0CH@GJHENCAJ@?5?5?$DO?5Path?5of?5GraphicsMagick?3?5?$CFs?$CF?9@ 00000001800449b0     image.obj
 0002:000169d8       ??_C@_0CH@DIFINHOM@?5?5?$DO?5Path?5of?5?8medcon?8?3?5?5?5?5?5?5?5?$CFs?$CF?9@ 00000001800449d8     image.obj
 0002:00016a00       ??_C@_0CH@NBHEOCD@?5?5?$DO?5Temporary?5path?3?5?5?5?5?5?5?5?5?5?$CFs?$CF?9@ 0000000180044a00     image.obj
 0002:00016a28       ??_C@_01EEMJAFIK@?6?$AA@   0000000180044a28     image.obj
 0002:00016a2c       ??_C@_06IHDMMOPO@?$CFs?4tmp?$AA@ 0000000180044a2c     image.obj
 0002:00016a34       ??_C@_03FICNPLNB@TMP?$AA@  0000000180044a34     image.obj
 0002:00016a38       ??_C@_04JKHNIKCB@TEMP?$AA@ 0000000180044a38     image.obj
 0002:00016a40       ??_C@_06GIIGBPHC@?$CFs?$CFc?$CFs?$AA@ 0000000180044a40     image.obj
 0002:00016a48       ??_C@_0O@MCLGOIG@C?3?2WINNT?2Temp?$AA@ 0000000180044a48     image.obj
 0002:00016a58       ??_C@_0BA@OBBKBLLO@C?3?2WINDOWS?2Temp?$AA@ 0000000180044a58     image.obj
 0002:00016a68       ??_C@_07OEMLJILH@C?3?2Temp?$AA@ 0000000180044a68     image.obj
 0002:00016a70       ??_C@_02FHMLMLAN@C?3?$AA@  0000000180044a70     image.obj
 0002:00016a78       ??_C@_0O@GJOGMEEG@D?3?2WINNT?2Temp?$AA@ 0000000180044a78     image.obj
 0002:00016a88       ??_C@_0BA@BMODODML@D?3?2WINDOWS?2Temp?$AA@ 0000000180044a88     image.obj
 0002:00016a98       ??_C@_07OOAOJBKO@D?3?2Temp?$AA@ 0000000180044a98     image.obj
 0002:00016aa0       ??_C@_02FCIENNII@D?3?$AA@  0000000180044aa0     image.obj
 0002:00016ab0       ??_C@_0EM@MFNNFKJO@cimg?3?3temporary_path?$CI?$CJ?3?5Failed?5t@ 0000000180044ab0     image.obj
 0002:00016b00       ??_C@_0N@DGDPHBCF@PROGRAMFILES?$AA@ 0000000180044b00     image.obj
 0002:00016b10       ??_C@_0M@JGDMECFM@C?3?2PROGRA?$HO1?$AA@ 0000000180044b10     image.obj
 0002:00016b20       ??_C@_0O@CINCGHCE@?4?2convert?4exe?$AA@ 0000000180044b20     image.obj
 0002:00016b30       ??_C@_01KDCPPGHE@r?$AA@    0000000180044b30     image.obj
 0002:00016b38       ??_C@_0BO@BEENKDDB@?$CFs?2IMAGEM?$HO1?4?$CF?42d?9?2convert?4exe?$AA@ 0000000180044b38     image.obj
 0002:00016b58       ??_C@_0BN@DEFKOHAO@?$CFs?2IMAGEM?$HO1?4?$CFd?9Q?2convert?4exe?$AA@ 0000000180044b58     image.obj
 0002:00016b78       ??_C@_0BL@MJEIJKFG@?$CFs?2IMAGEM?$HO1?4?$CFd?2convert?4exe?$AA@ 0000000180044b78     image.obj
 0002:00016b98       ??_C@_0CK@IDDGABKN@?$CFs?2IMAGEM?$HO1?4?$CF?42d?9?2VISUA?$HO1?2BIN?2co@ 0000000180044b98     image.obj
 0002:00016bc8       ??_C@_0CJ@MEJJNKIH@?$CFs?2IMAGEM?$HO1?4?$CFd?9Q?2VISUA?$HO1?2BIN?2con@ 0000000180044bc8     image.obj
 0002:00016bf8       ??_C@_0CH@IPLKJMJJ@?$CFs?2IMAGEM?$HO1?4?$CFd?2VISUA?$HO1?2BIN?2conve@ 0000000180044bf8     image.obj
 0002:00016c20       ??_C@_0BO@NPHMEFBN@C?3?2IMAGEM?$HO1?4?$CF?42d?9?2convert?4exe?$AA@ 0000000180044c20     image.obj
 0002:00016c40       ??_C@_0BN@GEAPEHLO@C?3?2IMAGEM?$HO1?4?$CFd?9Q?2convert?4exe?$AA@ 0000000180044c40     image.obj
 0002:00016c60       ??_C@_0BL@BNLFNGCG@C?3?2IMAGEM?$HO1?4?$CFd?2convert?4exe?$AA@ 0000000180044c60     image.obj
 0002:00016c80       ??_C@_0CK@OMCOIKKD@C?3?2IMAGEM?$HO1?4?$CF?42d?9?2VISUA?$HO1?2BIN?2co@ 0000000180044c80     image.obj
 0002:00016cb0       ??_C@_0CJ@GMGFDFFB@C?3?2IMAGEM?$HO1?4?$CFd?9Q?2VISUA?$HO1?2BIN?2con@ 0000000180044cb0     image.obj
 0002:00016ce0       ??_C@_0CH@NLPLIBFJ@C?3?2IMAGEM?$HO1?4?$CFd?2VISUA?$HO1?2BIN?2conve@ 0000000180044ce0     image.obj
 0002:00016d08       ??_C@_0BO@GKFOOMCF@D?3?2IMAGEM?$HO1?4?$CF?42d?9?2convert?4exe?$AA@ 0000000180044d08     image.obj
 0002:00016d28       ??_C@_0BN@JGGJEOAD@D?3?2IMAGEM?$HO1?4?$CFd?9Q?2convert?4exe?$AA@ 0000000180044d28     image.obj
 0002:00016d48       ??_C@_0BL@MPGAJAKA@D?3?2IMAGEM?$HO1?4?$CFd?2convert?4exe?$AA@ 0000000180044d48     image.obj
 0002:00016d68       ??_C@_0CK@DNGABIKL@D?3?2IMAGEM?$HO1?4?$CF?42d?9?2VISUA?$HO1?2BIN?2co@ 0000000180044d68     image.obj
 0002:00016d98       ??_C@_0CJ@JJJAMMPF@D?3?2IMAGEM?$HO1?4?$CFd?9Q?2VISUA?$HO1?2BIN?2con@ 0000000180044d98     image.obj
 0002:00016dc8       ??_C@_0CH@OJDFLFEH@D?3?2IMAGEM?$HO1?4?$CFd?2VISUA?$HO1?2BIN?2conve@ 0000000180044dc8     image.obj
 0002:00016df0       ??_C@_0M@BHHDHLFO@convert?4exe?$AA@ 0000000180044df0     image.obj
 0002:00016e00       ??_C@_08JLFGAKFI@?4?2gm?4exe?$AA@ 0000000180044e00     image.obj
 0002:00016e10       ??_C@_0BJ@KIJEJDFC@?$CFs?2GRAPHI?$HO1?4?$CF?42d?9?2gm?4exe?$AA@ 0000000180044e10     image.obj
 0002:00016e30       ??_C@_0BI@JLKBGOLD@?$CFs?2GRAPHI?$HO1?4?$CFd?9Q?2gm?4exe?$AA@ 0000000180044e30     image.obj
 0002:00016e48       ??_C@_0BG@NEOPBCGI@?$CFs?2GRAPHI?$HO1?4?$CFd?2gm?4exe?$AA@ 0000000180044e48     image.obj
 0002:00016e60       ??_C@_0CF@HGNIKPKC@?$CFs?2GRAPHI?$HO1?4?$CF?42d?9?2VISUA?$HO1?2BIN?2gm@ 0000000180044e60     image.obj
 0002:00016e88       ??_C@_0CE@HONJHPCF@?$CFs?2GRAPHI?$HO1?4?$CFd?9Q?2VISUA?$HO1?2BIN?2gm?4@ 0000000180044e88     image.obj
 0002:00016eb0       ??_C@_0CC@CGJHNFDG@?$CFs?2GRAPHI?$HO1?4?$CFd?2VISUA?$HO1?2BIN?2gm?4ex@ 0000000180044eb0     image.obj
 0002:00016ed8       ??_C@_0BJ@LNLIIJPN@C?3?2GRAPHI?$HO1?4?$CF?42d?9?2gm?4exe?$AA@ 0000000180044ed8     image.obj
 0002:00016ef8       ??_C@_0BI@GNJGIIOO@C?3?2GRAPHI?$HO1?4?$CFd?9Q?2gm?4exe?$AA@ 0000000180044ef8     image.obj
 0002:00016f10       ??_C@_0BG@KKAGDOPF@C?3?2GRAPHI?$HO1?4?$CFd?2gm?4exe?$AA@ 0000000180044f10     image.obj
 0002:00016f28       ??_C@_0CF@IDNFPMOE@C?3?2GRAPHI?$HO1?4?$CF?42d?9?2VISUA?$HO1?2BIN?2gm@ 0000000180044f28     image.obj
 0002:00016f50       ??_C@_0CE@HMEOGOHC@C?3?2GRAPHI?$HO1?4?$CFd?9Q?2VISUA?$HO1?2BIN?2gm?4@ 0000000180044f50     image.obj
 0002:00016f78       ??_C@_0CC@KLPHHFCI@C?3?2GRAPHI?$HO1?4?$CFd?2VISUA?$HO1?2BIN?2gm?4ex@ 0000000180044f78     image.obj
 0002:00016fa0       ??_C@_0BJ@HDOIHFFF@D?3?2GRAPHI?$HO1?4?$CF?42d?9?2gm?4exe?$AA@ 0000000180044fa0     image.obj
 0002:00016fc0       ??_C@_0BI@FMIOLPJJ@D?3?2GRAPHI?$HO1?4?$CFd?9Q?2gm?4exe?$AA@ 0000000180044fc0     image.obj
 0002:00016fd8       ??_C@_0BG@MPNPAALF@D?3?2GRAPHI?$HO1?4?$CFd?2gm?4exe?$AA@ 0000000180044fd8     image.obj
 0002:00016ff0       ??_C@_0CF@LHOHJFDL@D?3?2GRAPHI?$HO1?4?$CF?42d?9?2VISUA?$HO1?2BIN?2gm@ 0000000180044ff0     image.obj
 0002:00017018       ??_C@_0CE@CAPOENBL@D?3?2GRAPHI?$HO1?4?$CFd?9Q?2VISUA?$HO1?2BIN?2gm?4@ 0000000180045018     image.obj
 0002:00017040       ??_C@_0CC@FEHIMCKK@D?3?2GRAPHI?$HO1?4?$CFd?2VISUA?$HO1?2BIN?2gm?4ex@ 0000000180045040     image.obj
 0002:00017064       ??_C@_06KIIJHODA@gm?4exe?$AA@ 0000000180045064     image.obj
 0002:00017070       ??_C@_0N@MGGOIDG@?4?2medcon?4exe?$AA@ 0000000180045070     image.obj
 0002:00017080       ??_C@_0BK@NDJGANHB@?$CFs?2XMedCon?2bin?2medcon?4bat?$AA@ 0000000180045080     image.obj
 0002:000170a0       ??_C@_0BK@OGPIOCH@?$CFs?2XMedCon?2bin?2medcon?4exe?$AA@ 00000001800450a0     image.obj
 0002:000170c0       ??_C@_0BK@EIBDBMEE@C?3?2XMedCon?2bin?2medcon?4exe?$AA@ 00000001800450c0     image.obj
 0002:000170e0       ??_C@_0L@BIHMEPJA@medcon?4exe?$AA@ 00000001800450e0     image.obj
 0002:000170ec       ??_C@_01LKDEMHDF@s?$AA@    00000001800450ec     image.obj
 0002:000170f0       ??_C@_0L@OBBAIDHB@?$CFlu?5byte?$CFs?$AA@ 00000001800450f0     image.obj
 0002:00017100       ??_C@_08MFGCGJIH@?$CF?41f?5Kio?$AA@ 0000000180045100     image.obj
 0002:00017110       ??_C@_08OAAJDGFL@?$CF?41f?5Mio?$AA@ 0000000180045110     image.obj
 0002:00017120       ??_C@_08IPLENGDP@?$CF?41f?5Gio?$AA@ 0000000180045120     image.obj
 0002:00017130       ??_C@_09LAIAIPHJ@LwipImage?$AA@ 0000000180045130     image.obj
 0002:0001713c       ??_C@_05IGKADHGO@width?$AA@ 000000018004513c     image.obj
 0002:00017144       ??_C@_06LNLHEAAG@height?$AA@ 0000000180045144     image.obj
 0002:00017150       ??_C@_08BAKLOFAD@getPixel?$AA@ 0000000180045150     image.obj
 0002:0001715c       ??_C@_06HOHPNJLC@buffer?$AA@ 000000018004515c     image.obj
 0002:00017164       ??_C@_06PIONCPJI@resize?$AA@ 0000000180045164     image.obj
 0002:0001716c       ??_C@_06CEHMNFAL@rotate?$AA@ 000000018004516c     image.obj
 0002:00017174       ??_C@_04OEOMNFLL@blur?$AA@ 0000000180045174     image.obj
 0002:0001717c       ??_C@_04EKMNJIID@crop?$AA@ 000000018004517c     image.obj
 0002:00017184       ??_C@_06LLKPBPOH@mirror?$AA@ 0000000180045184     image.obj
 0002:0001718c       ??_C@_03PNAAIPML@pad?$AA@  000000018004518c     image.obj
 0002:00017190       ??_C@_07JOLMDEEJ@sharpen?$AA@ 0000000180045190     image.obj
 0002:00017198       ??_C@_07GMFDBPHL@hslaAdj?$AA@ 0000000180045198     image.obj
 0002:000171a0       ??_C@_07JGMNFOGM@opacify?$AA@ 00000001800451a0     image.obj
 0002:000171a8       ??_C@_05NDLFFNHM@paste?$AA@ 00000001800451a8     image.obj
 0002:000171b0       ??_C@_08OBIHPGHO@setPixel?$AA@ 00000001800451b0     image.obj
 0002:000171bc       ??_C@_04BOPJJKFO@non?9?$AA@ 00000001800451bc     image.obj
 0002:000171d0       ??_C@_0GO@IJKBBBF@?$FLinstance?$CI?$CFu?0?$CFu?0?$CFu?0?$CFu?0?$CFp?0?$CFsshare@ 00000001800451d0     image.obj
 0002:00017240       ??_C@_0IL@FBEMFEEL@?$FLinstance?$CI?$CFu?0?$CFu?0?$CFu?0?$CFu?0?$CFp?0?$CFsshare@ 0000000180045240     image.obj
 0002:000172d0       ??_C@_0HA@LNIOEEDA@?$FLinstance?$CI?$CFu?0?$CFu?0?$CFu?0?$CFu?0?$CFp?0?$CFsshare@ 00000001800452d0     image.obj
 0002:00017340       ??_C@_1CE@IAEMMFJ@?$AA?$CB?$AAh?$AAa?$AAn?$AAd?$AAl?$AAe?$AA?4?$AAI?$AAs?$AAE?$AAm?$AAp?$AAt?$AAy?$AA?$CI?$AA?$CJ?$AA?$AA@ 0000000180045340     image.obj
 0002:00017368       ??_C@_0N@OFHMGPAL@unsigned?5int?$AA@ 0000000180045368     resize_worker.obj
 0002:00017378       ??_C@_0O@NMGGJGDE@unsigned?5long?$AA@ 0000000180045378     resize_worker.obj
 0002:00017388       ??_C@_05KNFBNCOH@float?$AA@ 0000000180045388     resize_worker.obj
 0002:00017390       ??_C@_0BH@HOEBJHNE@Unable?5to?5resize?5image?$AA@ 0000000180045390     resize_worker.obj
 0002:000173b0       ??_C@_0HN@LNNNGPDL@?$FLinstance?$CI?$CFu?0?$CFu?0?$CFu?0?$CFu?0?$CFp?0?$CFsshare@ 00000001800453b0     resize_worker.obj
 0002:00017430       ??_C@_0LO@CIICCCPG@?$FLinstance?$CI?$CFu?0?$CFu?0?$CFu?0?$CFu?0?$CFp?0?$CFsshare@ 0000000180045430     resize_worker.obj
 0002:000174f0       ??_C@_0EG@MMNHNNC@?$FLinstance?$CI?$CFu?0?$CFu?0?$CFu?0?$CFu?0?$CFp?0?$CFsshare@ 00000001800454f0     resize_worker.obj
 0002:00017540       ??_C@_0GG@IFNNPGGA@?$FLinstance?$CI?$CFu?0?$CFu?0?$CFu?0?$CFu?0?$CFp?0?$CFsshare@ 0000000180045540     resize_worker.obj
 0002:000175a8       ??_7ResizeWorker@@6B@      00000001800455a8     resize_worker.obj
 0002:000175d8       ??_7AsyncWorker@Nan@@6B@   00000001800455d8     resize_worker.obj
 0002:00017608       ??_7RotateWorker@@6B@      0000000180045608     rotate_worker.obj
 0002:00017638       ??_C@_0O@NALGGDJF@Out?5of?5memory?$AA@ 0000000180045638     rotate_worker.obj
 0002:00017648       ??_C@_0BH@GGFIPBFA@Unable?5to?5rotate?5image?$AA@ 0000000180045648     rotate_worker.obj
 0002:00017660       ??_7BlurWorker@@6B@        0000000180045660     blur_worker.obj
 0002:00017690       ??_7CropWorker@@6B@        0000000180045690     crop_worker.obj
 0002:000176c0       ??_C@_0BF@EIGNCFLG@Unable?5to?5crop?5image?$AA@ 00000001800456c0     crop_worker.obj
 0002:000176d8       ??_C@_01FJMABOPO@x?$AA@    00000001800456d8     mirror_worker.obj
 0002:000176dc       ??_C@_01EANLCPLP@y?$AA@    00000001800456dc     mirror_worker.obj
 0002:000176e0       ??_C@_0BH@GGNFDDGJ@Unable?5to?5mirror?5image?$AA@ 00000001800456e0     mirror_worker.obj
 0002:00017700       ??_C@_0FF@BEMAOOFG@?$FLinstance?$CI?$CFu?0?$CFu?0?$CFu?0?$CFu?0?$CFp?0?$CFsshare@ 0000000180045700     mirror_worker.obj
 0002:00017758       ??_7MirrorWorker@@6B@      0000000180045758     mirror_worker.obj
 0002:00017788       ??_7PadWorker@@6B@         0000000180045788     pad_worker.obj
 0002:000177b8       ??_C@_0BI@KMLFCNEF@Unable?5to?5sharpen?5image?$AA@ 00000001800457b8     sharpen_worker.obj
 0002:000177d0       ??_C@_0EF@BOBPDEID@?$FLinstance?$CI?$CFu?0?$CFu?0?$CFu?0?$CFu?0?$CFp?0?$CFsshare@ 00000001800457d0     sharpen_worker.obj
 0002:00017818       ??_7SharpenWorker@@6B@     0000000180045818     sharpen_worker.obj
 0002:00017848       ??_7HSLAWorker@@6B@        0000000180045848     hsla_worker.obj
 0002:00017878       ??_7OpacifyWorker@@6B@     0000000180045878     opacify_worker.obj
 0002:000178a8       ??_7PasteWorker@@6B@       00000001800458a8     paste_worker.obj
 0002:000178d8       ??_C@_06JIBAFMCE@pixbuf?$AA@ 00000001800458d8     paste_worker.obj
 0002:000178e0       ??_C@_0BG@NOEMJBFE@Unable?5to?5paste?5image?$AA@ 00000001800458e0     paste_worker.obj
 0002:000178f8       ??_7SetPixelWorker@@6B@    00000001800458f8     setpixel_worker.obj
 0002:00017928       ??_C@_08HCOMDCCD@iojs?4exe?$AA@ 0000000180045928     win_delay_load_hook.obj
 0002:00017938       ??_C@_08JDDNMFDB@node?4exe?$AA@ 0000000180045938     win_delay_load_hook.obj
 0002:00017944       __real@30800000            0000000180045944     image.obj
 0002:00017948       __real@35800000            0000000180045948     image.obj
 0002:0001794c       __real@3a800000            000000018004594c     image.obj
 0002:00017950       __real@3eaaaaab            0000000180045950     hsla_worker.obj
 0002:00017954       __real@3f000000            0000000180045954     hsla_worker.obj
 0002:00017958       __real@3f2aaaab            0000000180045958     hsla_worker.obj
 0002:0001795c       __real@3f800000            000000018004595c     hsla_worker.obj
 0002:00017960       __real@3facb923a29c779a    0000000180045960     sharpen_worker.obj
 0002:00017968       __real@3fd06f694467381d    0000000180045968     sharpen_worker.obj
 0002:00017970       __real@3fe28240b780346e    0000000180045970     sharpen_worker.obj
 0002:00017978       __real@3fef5f6fd21ff2e5    0000000180045978     sharpen_worker.obj
 0002:00017980       __real@3ff0000000000000    0000000180045980     sharpen_worker.obj
 0002:00017988       __real@3ff2ab367a0f9097    0000000180045988     sharpen_worker.obj
 0002:00017990       __real@40000000            0000000180045990     hsla_worker.obj
 0002:00017998       __real@4001b9abf3387161    0000000180045998     sharpen_worker.obj
 0002:000179a0       __real@400412a305532618    00000001800459a0     sharpen_worker.obj
 0002:000179a8       __real@4008000000000000    00000001800459a8     sharpen_worker.obj
 0002:000179b0       __real@400921fb54442d18    00000001800459b0     resize_worker.obj
 0002:000179b8       __real@4009a13d028c43be    00000001800459b8     sharpen_worker.obj
 0002:000179c0       __real@400b0f47304039ac    00000001800459c0     sharpen_worker.obj
 0002:000179c8       __real@400c72b020c49ba6    00000001800459c8     sharpen_worker.obj
 0002:000179d0       __real@400de7a7229d4fdd    00000001800459d0     sharpen_worker.obj
 0002:000179d8       __real@401727e595e04062    00000001800459d8     sharpen_worker.obj
 0002:000179e0       __real@401b0f47304039ac    00000001800459e0     sharpen_worker.obj
 0002:000179e8       __real@40400000            00000001800459e8     hsla_worker.obj
 0002:000179ec       __real@40490fdb            00000001800459ec     resize_worker.obj
 0002:000179f0       __real@4056800000000000    00000001800459f0     rotate_worker.obj
 0002:000179f8       __real@4059000000000000    00000001800459f8     paste_worker.obj
 0002:00017a00       __real@4066800000000000    0000000180045a00     rotate_worker.obj
 0002:00017a08       __real@406fe00000000000    0000000180045a08     hsla_worker.obj
 0002:00017a10       __real@4076800000000000    0000000180045a10     hsla_worker.obj
 0002:00017a18       __real@40800000            0000000180045a18     rotate_worker.obj
 0002:00017a1c       __real@40a00000            0000000180045a1c     hsla_worker.obj
 0002:00017a20       __real@40c00000            0000000180045a20     hsla_worker.obj
 0002:00017a24       __real@42700000            0000000180045a24     hsla_worker.obj
 0002:00017a28       __real@42c80000            0000000180045a28     hsla_worker.obj
 0002:00017a2c       __real@437f0000            0000000180045a2c     hsla_worker.obj
 0002:00017a30       __real@43b40000            0000000180045a30     hsla_worker.obj
 0002:00017a38       __real@43e0000000000000    0000000180045a38     image.obj
 0002:00017a40       __real@c0000000            0000000180045a40     resize_worker.obj
 0002:00017a44       __real@c2c80000            0000000180045a44     sharpen_worker.obj
 0002:00017a50       __xmm@7fffffffffffffff7fffffffffffffff 0000000180045a50     sharpen_worker.obj
 0002:00017a60       __xmm@80000000000000008000000000000000 0000000180045a60     sharpen_worker.obj
 0002:00017a70       __xmm@80000000800000008000000080000000 0000000180045a70     sharpen_worker.obj
 0002:00019590       __real@bff0000000000000    0000000180047590     LIBCMT:floor.obj
 0002:0001a070       __Lcosarray                0000000180048070     LIBCMT:Lsincos_array.obj
 0002:0001a0d0       __Lsinarray                00000001800480d0     LIBCMT:Lsincos_array.obj
 0002:0001a450       ??_C@_04LAGPAAHP@sinf?$AA@ 0000000180048450     LIBCMT:sincos_special.obj
 0002:0001a458       ??_C@_04OBBKPIAC@cosf?$AA@ 0000000180048458     LIBCMT:sincos_special.obj
 0002:0001a470       __Lcosfarray               0000000180048470     LIBCMT:Lsincosf_array.obj
 0002:0001a4a0       __Lsinfarray               00000001800484a0     LIBCMT:Lsincosf_array.obj
 0002:0001a4c0       __two_to_jby64_table       00000001800484c0     LIBCMT:two_to_jby64_table.obj
 0002:0001a6c0       ??_C@_04KBNCNMNN@expf?$AA@ 00000001800486c0     LIBCMT:exp_special.obj
 0002:0001a6d0       __log_F_inv_qword          00000001800486d0     LIBCMT:log_F_inv_qword_table.obj
 0002:0001aee0       ??_C@_04MBFDLNIM@powf?$AA@ 0000000180048ee0     LIBCMT:pow_special.obj
 0002:0001aef0       __L_2_by_pi_bits           0000000180048ef0     LIBCMT:L2_by_pi_bits.obj
 0002:0001b040       _load_config_used          0000000180049040     LIBCMT:loadcfg.obj
 0002:0001b128       ??_R1A@?0A@EA@exception@std@@8 0000000180049128     libcpmt:xthrow.obj
 0002:0001b150       ??_R3exception@std@@8      0000000180049150     libcpmt:xthrow.obj
 0002:0001b168       ??_R2exception@std@@8      0000000180049168     libcpmt:xthrow.obj
 0002:0001b178       ??_R4bad_alloc@std@@6B@    0000000180049178     libcpmt:xthrow.obj
 0002:0001b1a0       ??_R3bad_alloc@std@@8      00000001800491a0     libcpmt:xthrow.obj
 0002:0001b1b8       ??_R2bad_alloc@std@@8      00000001800491b8     libcpmt:xthrow.obj
 0002:0001b1d0       ??_R1A@?0A@EA@bad_alloc@std@@8 00000001800491d0     libcpmt:xthrow.obj
 0002:0001b1f8       ??_R4logic_error@std@@6B@  00000001800491f8     libcpmt:xthrow.obj
 0002:0001b220       ??_R3logic_error@std@@8    0000000180049220     libcpmt:xthrow.obj
 0002:0001b238       ??_R2logic_error@std@@8    0000000180049238     libcpmt:xthrow.obj
 0002:0001b250       ??_R1A@?0A@EA@logic_error@std@@8 0000000180049250     libcpmt:xthrow.obj
 0002:0001b278       ??_R4length_error@std@@6B@ 0000000180049278     libcpmt:xthrow.obj
 0002:0001b2a0       ??_R3length_error@std@@8   00000001800492a0     libcpmt:xthrow.obj
 0002:0001b2b8       ??_R2length_error@std@@8   00000001800492b8     libcpmt:xthrow.obj
 0002:0001b2d8       ??_R1A@?0A@EA@length_error@std@@8 00000001800492d8     libcpmt:xthrow.obj
 0002:0001b300       ??_R4out_of_range@std@@6B@ 0000000180049300     libcpmt:xthrow.obj
 0002:0001b328       ??_R3out_of_range@std@@8   0000000180049328     libcpmt:xthrow.obj
 0002:0001b340       ??_R2out_of_range@std@@8   0000000180049340     libcpmt:xthrow.obj
 0002:0001b360       ??_R1A@?0A@EA@out_of_range@std@@8 0000000180049360     libcpmt:xthrow.obj
 0002:0001b388       ??_R4type_info@@6B@        0000000180049388     LIBCMT:typinfo.obj
 0002:0001b3b0       ??_R3type_info@@8          00000001800493b0     LIBCMT:typinfo.obj
 0002:0001b3c8       ??_R2type_info@@8          00000001800493c8     LIBCMT:typinfo.obj
 0002:0001b3d8       ??_R1A@?0A@EA@type_info@@8 00000001800493d8     LIBCMT:typinfo.obj
 0002:0001b400       ??_R4exception@std@@6B@    0000000180049400     LIBCMT:stdexcpt.obj
 0002:0001b428       ??_R4bad_exception@std@@6B@ 0000000180049428     LIBCMT:frame.obj
 0002:0001b450       ??_R3bad_exception@std@@8  0000000180049450     LIBCMT:frame.obj
 0002:0001b468       ??_R2bad_exception@std@@8  0000000180049468     LIBCMT:frame.obj
 0002:0001b480       ??_R1A@?0A@EA@bad_exception@std@@8 0000000180049480     LIBCMT:frame.obj
 0002:0001b4a8       __rtc_iaa                  00000001800494a8     LIBCMT:initsect.obj
 0002:0001b4b0       __rtc_izz                  00000001800494b0     LIBCMT:initsect.obj
 0002:0001b4b8       __rtc_taa                  00000001800494b8     LIBCMT:initsect.obj
 0002:0001b4c0       __rtc_tzz                  00000001800494c0     LIBCMT:initsect.obj
 0002:0001ecc0       _TI2?AVbad_alloc@std@@     000000018004ccc0     libcpmt:xthrow.obj
 0002:0001ece0       _CTA2?AVbad_alloc@std@@    000000018004cce0     libcpmt:xthrow.obj
 0002:0001ecf8       _CT??_R0?AVbad_alloc@std@@@8??0bad_alloc@std@@QEAA@AEBV01@@Z24 000000018004ccf8     libcpmt:xthrow.obj
 0002:0001ed20       _CT??_R0?AVexception@std@@@8??0exception@std@@QEAA@AEBV01@@Z24 000000018004cd20     libcpmt:xthrow.obj
 0002:0001ed48       _CT??_R0?AVlogic_error@std@@@8??0logic_error@std@@QEAA@AEBV01@@Z24 000000018004cd48     libcpmt:xthrow.obj
 0002:0001ed70       _TI3?AVlength_error@std@@  000000018004cd70     libcpmt:xthrow.obj
 0002:0001ed90       _CTA3?AVlength_error@std@@ 000000018004cd90     libcpmt:xthrow.obj
 0002:0001edb0       _CT??_R0?AVlength_error@std@@@8??0length_error@std@@QEAA@AEBV01@@Z24 000000018004cdb0     libcpmt:xthrow.obj
 0002:0001edd8       _TI3?AVout_of_range@std@@  000000018004cdd8     libcpmt:xthrow.obj
 0002:0001edf8       _CTA3?AVout_of_range@std@@ 000000018004cdf8     libcpmt:xthrow.obj
 0002:0001ee18       _CT??_R0?AVout_of_range@std@@@8??0out_of_range@std@@QEAA@AEBV01@@Z24 000000018004ce18     libcpmt:xthrow.obj
 0002:0001ee40       _TI2?AVbad_exception@std@@ 000000018004ce40     LIBCMT:frame.obj
 0002:0001ee60       _CTA2?AVbad_exception@std@@ 000000018004ce60     LIBCMT:frame.obj
 0002:0001ee78       _CT??_R0?AVbad_exception@std@@@8??0bad_exception@std@@QEAA@AEBV01@@Z24 000000018004ce78     LIBCMT:frame.obj
 0002:0001eea0       _TI3?AUCImgIOException@cimg_library@@ 000000018004cea0     image.obj
 0002:0001eec0       _CTA3?AUCImgInstanceException@cimg_library@@ 000000018004cec0     image.obj
 0002:0001eee0       _TI3?AUCImgArgumentException@cimg_library@@ 000000018004cee0     image.obj
 0002:0001ef00       _CT??_R0?AUCImgException@cimg_library@@@8??0CImgException@cimg_library@@QEAA@AEBU01@@Z24 000000018004cf00     image.obj
 0002:0001ef28       _CT??_R0?AUCImgInstanceException@cimg_library@@@8??0CImgInstanceException@cimg_library@@QEAA@AEBU01@@Z24 000000018004cf28     image.obj
 0002:0001ef50       _TI3?AUCImgInstanceException@cimg_library@@ 000000018004cf50     image.obj
 0002:0001ef70       _CT??_R0?AUCImgIOException@cimg_library@@@8??0CImgIOException@cimg_library@@QEAA@AEBU01@@Z24 000000018004cf70     image.obj
 0002:0001ef98       _CT??_R0?AVexception@stdext@@@8??0exception@stdext@@QEAA@AEBV01@@Z16 000000018004cf98     image.obj
 0002:0001efc0       _CTA3?AUCImgIOException@cimg_library@@ 000000018004cfc0     image.obj
 0002:0001efe0       _CTA3?AUCImgArgumentException@cimg_library@@ 000000018004cfe0     image.obj
 0002:0001f000       _CT??_R0?AUCImgArgumentException@cimg_library@@@8??0CImgArgumentException@cimg_library@@QEAA@AEBU01@@Z24 000000018004d000     image.obj
 0002:0001f024       __DELAY_IMPORT_DESCRIPTOR_node_exe 000000018004d024     node:node.exe
 0002:0001f044       __NULL_DELAY_IMPORT_DESCRIPTOR 000000018004d044     node:node.exe
 0002:0001f220       \177node_NULL_THUNK_DATA_DLN 000000018004d220     node:node.exe
 0002:00020060       \177node_NULL_THUNK_DATA_DLB 000000018004e060     node:node.exe
 0002:00020278       __IMPORT_DESCRIPTOR_KERNEL32 000000018004e278     kernel32:KERNEL32.dll
 0002:0002028c       __IMPORT_DESCRIPTOR_SHELL32 000000018004e28c     shell32:SHELL32.dll
 0002:000202a0       __NULL_IMPORT_DESCRIPTOR   000000018004e2a0     kernel32:KERNEL32.dll
 0003:00000000       _iob                       000000018004f000     LIBCMT:_file.obj
 0003:00000430       _fltused                   000000018004f430     LIBCMT:fpinit.obj
 0003:00000434       _ldused                    000000018004f434     LIBCMT:fpinit.obj
 0003:00000438       __security_cookie          000000018004f438     LIBCMT:gs_cookie.obj
 0003:00000440       __security_cookie_complement 000000018004f440     LIBCMT:gs_cookie.obj
 0003:00000448       __isa_available            000000018004f448     LIBCMT:cpu_disp.obj
 0003:0000044c       __isa_enabled              000000018004f44c     LIBCMT:cpu_disp.obj
 0003:00000450       __abort_behavior           000000018004f450     LIBCMT:abort.obj
 0003:00000458       __nullstring               000000018004f458     LIBCMT:output.obj
 0003:00000460       __wnullstring              000000018004f460     LIBCMT:output.obj
 0003:00000820       __badioinfo                000000018004f820     LIBCMT:ioinit.obj
 0003:00000878       __flsindex                 000000018004f878     LIBCMT:tidtable.obj
 0003:00000880       _mbctype                   000000018004f880     LIBCMT:mbctype.obj
 0003:00000990       _mbcasemap                 000000018004f990     LIBCMT:mbctype.obj
 0003:00000a90       __initialmbcinfo           000000018004fa90     LIBCMT:mbctype.obj
 0003:00000db0       __ptmbcinfo                000000018004fdb0     LIBCMT:mbctype.obj
 0003:00000db8       __mb_cur_max               000000018004fdb8     LIBCMT:nlsdata.obj
 0003:00000dbc       __wclocalestr              000000018004fdbc     LIBCMT:nlsdata.obj
 0003:00000dc0       __lc_time_c                000000018004fdc0     LIBCMT:nlsdata.obj
 0003:00001080       __ptlocinfo                0000000180050080     LIBCMT:nlsdata.obj
 0003:00001090       __initiallocinfo           0000000180050090     LIBCMT:nlsdata.obj
 0003:000011e8       __globallocalestatus       00000001800501e8     LIBCMT:glstatus.obj
 0003:00001200       _cfltcvt_tab               0000000180050200     LIBCMT:cmiscdat.obj
 0003:00001420       _matherr_flag              0000000180050420     LIBCMT:matherr.obj
 0003:00001430       __lconv_c                  0000000180050430     LIBCMT:lconv.obj
 0003:000014c8       __lconv_static_decimal     00000001800504c8     LIBCMT:lconv.obj
 0003:000014cc       __lconv_static_W_decimal   00000001800504cc     LIBCMT:lconv.obj
 0003:000014d0       __lconv                    00000001800504d0     LIBCMT:lconv.obj
 0003:000014d8       _pctype                    00000001800504d8     LIBCMT:ctype.obj
 0003:000014e0       _pwctype                   00000001800504e0     LIBCMT:ctype.obj
 0003:000014f0       _d_inf                     00000001800504f0     LIBCMT:util.obj
 0003:000014f8       _d_ind                     00000001800504f8     LIBCMT:util.obj
 0003:00001500       _d_max                     0000000180050500     LIBCMT:util.obj
 0003:00001508       _d_min                     0000000180050508     LIBCMT:util.obj
 0003:00001510       _d_mzero                   0000000180050510     LIBCMT:util.obj
 0003:00001550       _confh                     0000000180050550     LIBCMT:initcon.obj
 0003:00001560       _lookuptrailbytes          0000000180050560     LIBCMT:read.obj
 0003:00001660       _pow10pos                  0000000180050660     LIBCMT:constpow.obj
 0003:000017c0       _pow10neg                  00000001800507c0     LIBCMT:constpow.obj
 0003:00001920       _HUGE                      0000000180050920     LIBCMT:huge.obj
 0003:00001970       __pfnDliNotifyHook2        0000000180050970     win_delay_load_hook.obj
 0003:000019c0       ??_R0?AVbad_alloc@std@@@8  00000001800509c0     libcpmt:xthrow.obj
 0003:000019e8       ??_R0?AVexception@std@@@8  00000001800509e8     libcpmt:xthrow.obj
 0003:00001a10       ??_R0?AVlogic_error@std@@@8 0000000180050a10     libcpmt:xthrow.obj
 0003:00001a38       ??_R0?AVlength_error@std@@@8 0000000180050a38     libcpmt:xthrow.obj
 0003:00001a60       ??_R0?AVout_of_range@std@@@8 0000000180050a60     libcpmt:xthrow.obj
 0003:00001a88       ??_R0?AVtype_info@@@8      0000000180050a88     LIBCMT:typinfo.obj
 0003:00001aa8       ??_R0?AVbad_exception@std@@@8 0000000180050aa8     LIBCMT:frame.obj
 0003:00001ad0       ??_R0?AUCImgIOException@cimg_library@@@8 0000000180050ad0     image.obj
 0003:00001b08       ??_R0?AUCImgInstanceException@cimg_library@@@8 0000000180050b08     image.obj
 0003:00001b48       ??_R0?AUCImgException@cimg_library@@@8 0000000180050b48     image.obj
 0003:00001b80       ??_R0?AVexception@stdext@@@8 0000000180050b80     image.obj
 0003:00001ba8       ??_R0?AUCImgArgumentException@cimg_library@@@8 0000000180050ba8     image.obj
 0003:00001be8       __imp_node_module_register 0000000180050be8     node:node.exe
 0003:00001bf0       __imp_?Data@Buffer@node@@YAPEADV?$Local@VObject@v8@@@v8@@@Z 0000000180050bf0     node:node.exe
 0003:00001bf8       __imp_?Copy@Buffer@node@@YA?AV?$MaybeLocal@VObject@v8@@@v8@@PEAVIsolate@4@PEBD_K@Z 0000000180050bf8     node:node.exe
 0003:00001c00       __imp_uv_default_loop      0000000180050c00     node:node.exe
 0003:00001c08       __imp_?New@Signature@v8@@SA?AV?$Local@VSignature@v8@@@2@PEAVIsolate@2@V?$Local@VFunctionTemplate@v8@@@2@@Z 0000000180050c08     node:node.exe
 0003:00001c10       __imp_?ToLocalEmpty@V8@v8@@CAXXZ 0000000180050c10     node:node.exe
 0003:00001c18       __imp_?ClearWeak@V8@v8@@CAPEAXPEAPEAVObject@internal@2@@Z 0000000180050c18     node:node.exe
 0003:00001c20       __imp_?MakeWeak@V8@v8@@CAXPEAPEAVObject@internal@2@PEAXP6AXAEBV?$WeakCallbackData@VValue@v8@@X@2@@Z@Z 0000000180050c20     node:node.exe
 0003:00001c28       __imp_?DisposeGlobal@V8@v8@@CAXPEAPEAVObject@internal@2@@Z 0000000180050c28     node:node.exe
 0003:00001c30       __imp_?GlobalizeReference@V8@v8@@CAPEAPEAVObject@internal@2@PEAVIsolate@42@PEAPEAV342@@Z 0000000180050c30     node:node.exe
 0003:00001c38       __imp_?Escape@EscapableHandleScope@v8@@AEAAPEAPEAVObject@internal@2@PEAPEAV342@@Z 0000000180050c38     node:node.exe
 0003:00001c40       __imp_??0EscapableHandleScope@v8@@QEAA@PEAVIsolate@1@@Z 0000000180050c40     node:node.exe
 0003:00001c48       __imp_?NumberValue@Value@v8@@QEBANXZ 0000000180050c48     node:node.exe
 0003:00001c50       __imp_?BooleanValue@Value@v8@@QEBA_NXZ 0000000180050c50     node:node.exe
 0003:00001c58       __imp_?ToInt32@Value@v8@@QEBA?AV?$MaybeLocal@VInt32@v8@@@2@V?$Local@VContext@v8@@@2@@Z 0000000180050c58     node:node.exe
 0003:00001c60       __imp_?SetClassName@FunctionTemplate@v8@@QEAAXV?$Local@VString@v8@@@2@@Z 0000000180050c60     node:node.exe
 0003:00001c68       __imp_?PrototypeTemplate@FunctionTemplate@v8@@QEAA?AV?$Local@VObjectTemplate@v8@@@2@XZ 0000000180050c68     node:node.exe
 0003:00001c70       __imp_?InstanceTemplate@FunctionTemplate@v8@@QEAA?AV?$Local@VObjectTemplate@v8@@@2@XZ 0000000180050c70     node:node.exe
 0003:00001c78       __imp_?GetFunction@FunctionTemplate@v8@@QEAA?AV?$Local@VFunction@v8@@@2@XZ 0000000180050c78     node:node.exe
 0003:00001c80       __imp_?GetFunction@FunctionTemplate@v8@@QEAA?AV?$MaybeLocal@VFunction@v8@@@2@V?$Local@VContext@v8@@@2@@Z 0000000180050c80     node:node.exe
 0003:00001c88       __imp_?New@FunctionTemplate@v8@@SA?AV?$Local@VFunctionTemplate@v8@@@2@PEAVIsolate@2@P6AXAEBV?$FunctionCallbackInfo@VValue@v8@@@2@@ZV?$Local@VValue@v8@@@2@V?$Local@VSignature@v8@@@2@H@Z 0000000180050c88     node:node.exe
 0003:00001c90       __imp_?NewFromUtf8@String@v8@@SA?AV?$MaybeLocal@VString@v8@@@2@PEAVIsolate@2@PEBDW4NewStringType@2@H@Z 0000000180050c90     node:node.exe
 0003:00001c98       __imp_?New@Array@v8@@SA?AV?$Local@VArray@v8@@@2@PEAVIsolate@2@H@Z 0000000180050c98     node:node.exe
 0003:00001ca0       __imp_?CreateHandle@HandleScope@v8@@KAPEAPEAVObject@internal@2@PEAVIsolate@42@PEAV342@@Z 0000000180050ca0     node:node.exe
 0003:00001ca8       __imp_?CreateHandle@HandleScope@v8@@CAPEAPEAVObject@internal@2@PEAVHeapObject@42@PEAV342@@Z 0000000180050ca8     node:node.exe
 0003:00001cb0       __imp_??1HandleScope@v8@@QEAA@XZ 0000000180050cb0     node:node.exe
 0003:00001cb8       __imp_??0HandleScope@v8@@QEAA@PEAVIsolate@1@@Z 0000000180050cb8     node:node.exe
 0003:00001cc0       __imp_?New@Number@v8@@SA?AV?$Local@VNumber@v8@@@2@PEAVIsolate@2@N@Z 0000000180050cc0     node:node.exe
 0003:00001cc8       __imp_?Value@Number@v8@@QEBANXZ 0000000180050cc8     node:node.exe
 0003:00001cd0       __imp_?SlowGetAlignedPointerFromInternalField@Object@v8@@AEAAPEAXH@Z 0000000180050cd0     node:node.exe
 0003:00001cd8       __imp_?SlowGetInternalField@Object@v8@@AEAA?AV?$Local@VValue@v8@@@2@H@Z 0000000180050cd8     node:node.exe
 0003:00001ce0       __imp_?New@Object@v8@@SA?AV?$Local@VObject@v8@@@2@PEAVIsolate@2@@Z 0000000180050ce0     node:node.exe
 0003:00001ce8       __imp_?SetAlignedPointerInInternalField@Object@v8@@QEAAXHPEAX@Z 0000000180050ce8     node:node.exe
 0003:00001cf0       __imp_?SetInternalField@Object@v8@@QEAAXHV?$Local@VValue@v8@@@2@@Z 0000000180050cf0     node:node.exe
 0003:00001cf8       __imp_?InternalFieldCount@Object@v8@@QEAAHXZ 0000000180050cf8     node:node.exe
 0003:00001d00       __imp_?Set@Object@v8@@QEAA_NV?$Local@VValue@v8@@@2@0@Z 0000000180050d00     node:node.exe
 0003:00001d08       __imp_?Set@Object@v8@@QEAA_NIV?$Local@VValue@v8@@@2@@Z 0000000180050d08     node:node.exe
 0003:00001d10       __imp_?Set@Object@v8@@QEAA?AV?$Maybe@_N@2@V?$Local@VContext@v8@@@2@IV?$Local@VValue@v8@@@2@@Z 0000000180050d10     node:node.exe
 0003:00001d18       __imp_?Set@Template@v8@@QEAAXV?$Local@VName@v8@@@2@V?$Local@VData@v8@@@2@W4PropertyAttribute@2@@Z 0000000180050d18     node:node.exe
 0003:00001d20       __imp_?SetInternalFieldCount@ObjectTemplate@v8@@QEAAXH@Z 0000000180050d20     node:node.exe
 0003:00001d28       __imp_?NewInstance@ObjectTemplate@v8@@QEAA?AV?$MaybeLocal@VObject@v8@@@2@V?$Local@VContext@v8@@@2@@Z 0000000180050d28     node:node.exe
 0003:00001d30       __imp_?New@ObjectTemplate@v8@@SA?AV?$Local@VObjectTemplate@v8@@@2@PEAVIsolate@2@V?$Local@VFunctionTemplate@v8@@@2@@Z 0000000180050d30     node:node.exe
 0003:00001d38       __imp_?Value@Integer@v8@@QEBA_JXZ 0000000180050d38     node:node.exe
 0003:00001d40       __imp_?New@Integer@v8@@SA?AV?$Local@VInteger@v8@@@2@PEAVIsolate@2@H@Z 0000000180050d40     node:node.exe
 0003:00001d48       __imp_?SetName@Function@v8@@QEAAXV?$Local@VString@v8@@@2@@Z 0000000180050d48     node:node.exe
 0003:00001d50       __imp_?GetCurrentContext@Isolate@v8@@QEAA?AV?$Local@VContext@v8@@@2@XZ 0000000180050d50     node:node.exe
 0003:00001d58       __imp_?GetCurrent@Isolate@v8@@SAPEAV12@XZ 0000000180050d58     node:node.exe
 0003:00001d60       __imp_?Value@External@v8@@QEBAPEAXXZ 0000000180050d60     node:node.exe
 0003:00001d68       __imp_?New@External@v8@@SA?AV?$Local@VExternal@v8@@@2@PEAVIsolate@2@PEAX@Z 0000000180050d68     node:node.exe
 0003:00001d70       __imp_uv_queue_work        0000000180050d70     node:node.exe
 0003:00001d78       __imp_??1EscapableHandleScope@v8@@QEAA@XZ 0000000180050d78     node:node.exe
 0003:00001d80       __imp_?MakeCallback@node@@YA?AV?$Local@VValue@v8@@@v8@@PEAVIsolate@3@V?$Local@VObject@v8@@@3@V?$Local@VFunction@v8@@@3@HPEAV23@@Z 0000000180050d80     node:node.exe
 0003:00001d88       __imp_?Global@Context@v8@@QEAA?AV?$Local@VObject@v8@@@2@XZ 0000000180050d88     node:node.exe
 0003:00001d90       __imp_?Error@Exception@v8@@SA?AV?$Local@VValue@v8@@@2@V?$Local@VString@v8@@@2@@Z 0000000180050d90     node:node.exe
 0003:00001d98       __imp_?Get@Object@v8@@QEAA?AV?$Local@VValue@v8@@@2@I@Z 0000000180050d98     node:node.exe
 0003:00001da0       \177node_NULL_THUNK_DATA_DLA 0000000180050da0     node:node.exe
 0003:00001dc0       __hmod__node_exe           0000000180050dc0     node:node.exe
 0003:00001dd0       _cflush                    0000000180050dd0     LIBCMT:_file.obj
 0003:00001de0       _aenvptr                   0000000180050de0     LIBCMT:dllcrt0.obj
 0003:00001de8       _wenvptr                   0000000180050de8     LIBCMT:dllcrt0.obj
 0003:00001df0       __fastflag                 0000000180050df0     LIBCMT:fpinit.obj
 0003:00002374       __favor                    0000000180051374     LIBCMT:cpu_disp.obj
 0003:00002378       ?__pInconsistency@@3P6AXXZEA 0000000180051378     LIBCMT:hooks.obj
 0003:00002380       _C_Exit_Done               0000000180051380     LIBCMT:crt0dat.obj
 0003:00002384       __argc                     0000000180051384     LIBCMT:crt0dat.obj
 0003:00002388       __argv                     0000000180051388     LIBCMT:crt0dat.obj
 0003:00002390       __wargv                    0000000180051390     LIBCMT:crt0dat.obj
 0003:00002398       _environ                   0000000180051398     LIBCMT:crt0dat.obj
 0003:000023a0       _wenviron                  00000001800513a0     LIBCMT:crt0dat.obj
 0003:000023a8       _pgmptr                    00000001800513a8     LIBCMT:crt0dat.obj
 0003:000023b0       _wpgmptr                   00000001800513b0     LIBCMT:crt0dat.obj
 0003:000023b8       _umaskval                  00000001800513b8     LIBCMT:crt0dat.obj
 0003:000023bc       _exitflag                  00000001800513bc     LIBCMT:crt0dat.obj
 0003:000023c0       _C_Termination_Done        00000001800513c0     LIBCMT:crt0dat.obj
 0003:000023c8       __winitenv                 00000001800513c8     LIBCMT:crt0dat.obj
 0003:000023d0       __initenv                  00000001800513d0     LIBCMT:crt0dat.obj
 0003:000023d8       _maxwait                   00000001800513d8     LIBCMT:crtheap.obj
 0003:000023e0       __pPurecall                00000001800513e0     LIBCMT:inithelp.obj
 0003:000023e8       ?_pnhHeap@@3P6AH_K@ZEA     00000001800513e8     LIBCMT:handler.obj
 0003:000023f0       __pInvalidArgHandler       00000001800513f0     LIBCMT:invarg.obj
 0003:00002630       __error_mode               0000000180051630     LIBCMT:errmode.obj
 0003:00002690       __app_type                 0000000180051690     LIBCMT:crt0msg.obj
 0003:00002cc8       _stdbuf                    0000000180051cc8     LIBCMT:_sftbuf.obj
 0003:00002ce0       __pioinfo                  0000000180051ce0     LIBCMT:ioinit.obj
 0003:00002ef0       __mbcodepage               0000000180051ef0     LIBCMT:mbctype.obj
 0003:00002ef4       __ismbcodepage             0000000180051ef4     LIBCMT:mbctype.obj
 0003:00002ef8       __mbulinfo                 0000000180051ef8     LIBCMT:mbctype.obj
 0003:00002f08       __mblocalename             0000000180051f08     LIBCMT:mbctype.obj
 0003:00002f14       __locale_changed           0000000180051f14     LIBCMT:wsetloca.obj
 0003:00002f18       _crtheap                   0000000180051f18     LIBCMT:heapinit.obj
 0003:00003028       ?g_OutOfMemoryExceptionCallback@@3P6APEAXXZEA 0000000180052028     LIBCMT:frame.obj
 0003:00003040       _newmode                   0000000180052040     LIBCMT:_newmode.obj
 0003:00003050       _commode                   0000000180052050     LIBCMT:ncommode.obj
 0003:00003058       ?m_pGetParameter@UnDecorator@@0P6APEADJ@ZEA 0000000180052058     LIBCMT:undname.obj
 0003:00003060       ?pArgList@UnDecorator@@0PEAVReplicator@@EA 0000000180052060     LIBCMT:undname.obj
 0003:00003068       ?pZNameList@UnDecorator@@0PEAVReplicator@@EA 0000000180052068     LIBCMT:undname.obj
 0003:00003070       ?pTemplateArgList@UnDecorator@@0PEAVReplicator@@EA 0000000180052070     LIBCMT:undname.obj
 0003:00003078       ?gName@UnDecorator@@0PEBDEB 0000000180052078     LIBCMT:undname.obj
 0003:00003080       ?name@UnDecorator@@0PEBDEB 0000000180052080     LIBCMT:undname.obj
 0003:00003088       ?outputString@UnDecorator@@0PEADEA 0000000180052088     LIBCMT:undname.obj
 0003:00003090       ?maxStringLength@UnDecorator@@0HA 0000000180052090     LIBCMT:undname.obj
 0003:00003094       ?disableFlags@UnDecorator@@0KA 0000000180052094     LIBCMT:undname.obj
 0003:00003098       ?fExplicitTemplateParams@UnDecorator@@0_NA 0000000180052098     LIBCMT:undname.obj
 0003:00003099       ?fGetTemplateArgumentList@UnDecorator@@0_NA 0000000180052099     LIBCMT:undname.obj
 0003:000030c8       __lconv_static_null        00000001800520c8     LIBCMT:lconv.obj
 0003:000030cc       __lconv_static_W_null      00000001800520cc     LIBCMT:lconv.obj
 0003:000030d0       _outputformat              00000001800520d0     LIBCMT:outputformat.obj
 0003:000030d4       _fmode                     00000001800520d4     LIBCMT:txtmode.obj
 0003:000030d8       __pfnDliFailureHook2       00000001800520d8     DelayImp:delayhk1.obj
 0003:000030e0       ?res@?1??output@cimg@cimg_library@@YAPEAU_iobuf@@PEAU4@@Z@4PEAU4@EA 00000001800520e0     image.obj
 0003:000030e8       ??_B?1??strbuffersize@cimg@cimg_library@@YAPEBDK@Z@51 00000001800520e8     image.obj
 0003:000030ec       ??_B?1??medcon_path@cimg@cimg_library@@YAPEBDQEBD_N@Z@51 00000001800520ec     image.obj
 0003:000030f0       ??_B?1??programfiles_path@cimg@cimg_library@@YAPEBDQEBD_N@Z@51 00000001800520f0     image.obj
 0003:000030f4       ??_B?1??graphicsmagick_path@cimg@cimg_library@@YAPEBDQEBD_N@Z@51 00000001800520f4     image.obj
 0003:00003100       ?val@?1??Mutex_attr@cimg@cimg_library@@YAAEAUMutex_info@23@XZ@4U423@A 0000000180052100     image.obj
 0003:00003200       ?s_path@?1??imagemagick_path@cimg@cimg_library@@YAPEBDQEBD_N@Z@4U?$CImg@D@3@A 0000000180052200     image.obj
 0003:00003220       ?s_path@?1??programfiles_path@cimg@cimg_library@@YAPEBDQEBD_N@Z@4U?$CImg@D@3@A 0000000180052220     image.obj
 0003:00003240       ??_B?1??Mutex_attr@cimg@cimg_library@@YAAEAUMutex_info@12@XZ@51 0000000180052240     image.obj
 0003:00003244       ?mode@?1??_exception_mode@cimg@cimg_library@@YAAEAII_N@Z@4IA 0000000180052244     image.obj
 0003:00003248       ?res@?1??strbuffersize@cimg@cimg_library@@YAPEBDK@Z@4U?$CImg@D@3@A 0000000180052248     image.obj
 0003:00003268       ??_B?1??temporary_path@cimg@cimg_library@@YAPEBDQEBD_N@Z@51 0000000180052268     image.obj
 0003:00003270       ?randomid@?1??filenamerand@cimg@cimg_library@@YAPEBDXZ@4PADA 0000000180052270     image.obj
 0003:00003280       ?s_path@?1??temporary_path@cimg@cimg_library@@YAPEBDQEBD_N@Z@4U?$CImg@D@3@A 0000000180052280     image.obj
 0003:000032a0       ?s_path@?1??graphicsmagick_path@cimg@cimg_library@@YAPEBDQEBD_N@Z@4U?$CImg@D@3@A 00000001800522a0     image.obj
 0003:000032c0       ??_B?1??imagemagick_path@cimg@cimg_library@@YAPEBDQEBD_N@Z@51 00000001800522c0     image.obj
 0003:000032c4       ??_B?1??output@cimg@cimg_library@@YAPEAU_iobuf@@PEAU3@@Z@51 00000001800522c4     image.obj
 0003:000032c8       ?s_path@?1??medcon_path@cimg@cimg_library@@YAPEBDQEBD_N@Z@4U?$CImg@D@3@A 00000001800522c8     image.obj
 0003:000032e8       ?id@?$num_put@_WV?$back_insert_iterator@V?$basic_string@_WU?$char_traits@_W@std@@V?$allocator@_W@2@@std@@@std@@@std@@2V0locale@2@A 00000001800522e8     init.obj
 0003:000032f0       ?_System_object@?$_Error_objects@H@std@@2V_System_error_category@2@A 00000001800522f0     init.obj
 0003:000032f8       ?id@?$numpunct@_W@std@@2V0locale@2@A 00000001800522f8     init.obj
 0003:00003300       ?id@?$num_put@DV?$back_insert_iterator@V?$basic_string@DU?$char_traits@D@std@@V?$allocator@D@2@@std@@@std@@@std@@2V0locale@2@A 0000000180052300     init.obj
 0003:00003308       ?_Iostream_object@?$_Error_objects@H@std@@2V_Iostream_error_category@2@A 0000000180052308     init.obj
 0003:00003318       ?constructor@LwipImage@@0V?$Persistent@VFunctionTemplate@v8@@V?$NonCopyablePersistentTraits@VFunctionTemplate@v8@@@2@@Nan@@A 0000000180052318     image.obj
 0003:00003338       ?_Generic_object@?$_Error_objects@H@std@@2V_Generic_error_category@2@A 0000000180052338     init.obj
 0003:00003340       ?id@?$numpunct@D@std@@2V0locale@2@A 0000000180052340     init.obj
 0003:00003348       __fma3_is_available        0000000180052348     LIBCMT:fma3_available.obj
 0003:0000334c       __use_fma3_lib             000000018005234c     LIBCMT:fma3_available.obj
 0003:00003350       _debugger_hook_dummy       0000000180052350     <common>
 0003:00003360       encodedKERNEL32Functions   0000000180052360     <common>
 0003:00003468       _nhandle                   0000000180052468     <common>
 0003:00003470       __dyn_tls_init_callback    0000000180052470     <common>
 0003:00003478       __onexitend                0000000180052478     <common>
 0003:00003480       __onexitbegin              0000000180052480     <common>
 0003:00003488       __mbctype_initialized      0000000180052488     <common>
 0003:0000348c       __env_initialized          000000018005248c     <common>
 0003:00003490       _acmdln                    0000000180052490     <common>
 0003:00003498       __piob                     0000000180052498     <common>
 0003:000034a0       _nstream                   00000001800524a0     <common>
 0003:000034c0       _bufin                     00000001800524c0     <common>

 entry point at        0001:00014af0

 Static symbols

 0000:fffa8000       .debug$S                   0000000180000000     kernel32:KERNEL32.dll
 0000:fffa8000       .debug$S                   0000000180000000     kernel32:KERNEL32.dll
 0000:fffa8000       .debug$S                   0000000180000000     kernel32:KERNEL32.dll
 0000:fffa8000       .debug$S                   0000000180000000     kernel32:KERNEL32.dll
 0000:fffa8000       .debug$S                   0000000180000000     kernel32:KERNEL32.dll
 0000:fffa8000       .debug$S                   0000000180000000     kernel32:KERNEL32.dll
 0000:fffa8000       .debug$S                   0000000180000000     kernel32:KERNEL32.dll
 0000:fffa8000       .debug$S                   0000000180000000     kernel32:KERNEL32.dll
 0000:fffa8000       .debug$S                   0000000180000000     kernel32:KERNEL32.dll
 0000:fffa8000       .debug$S                   0000000180000000     kernel32:KERNEL32.dll
 0000:fffa8000       .debug$S                   0000000180000000     kernel32:KERNEL32.dll
 0000:fffa8000       .debug$S                   0000000180000000     kernel32:KERNEL32.dll
 0000:fffa8000       .debug$S                   0000000180000000     kernel32:KERNEL32.dll
 0000:fffa8000       .debug$S                   0000000180000000     kernel32:KERNEL32.dll
 0000:fffa8000       .debug$S                   0000000180000000     kernel32:KERNEL32.dll
 0000:fffa8000       .debug$S                   0000000180000000     kernel32:KERNEL32.dll
 0000:fffa8000       .debug$S                   0000000180000000     kernel32:KERNEL32.dll
 0000:fffa8000       .debug$S                   0000000180000000     kernel32:KERNEL32.dll
 0000:fffa8000       .debug$S                   0000000180000000     kernel32:KERNEL32.dll
 0000:fffa8000       .debug$S                   0000000180000000     kernel32:KERNEL32.dll
 0000:fffa8000       .debug$S                   0000000180000000     kernel32:KERNEL32.dll
 0000:fffa8000       .debug$S                   0000000180000000     kernel32:KERNEL32.dll
 0000:fffa8000       .debug$S                   0000000180000000     kernel32:KERNEL32.dll
 0000:fffa8000       .debug$S                   0000000180000000     kernel32:KERNEL32.dll
 0000:fffa8000       .debug$S                   0000000180000000     kernel32:KERNEL32.dll
 0000:fffa8000       .debug$S                   0000000180000000     kernel32:KERNEL32.dll
 0000:fffa8000       .debug$S                   0000000180000000     kernel32:KERNEL32.dll
 0000:fffa8000       .debug$S                   0000000180000000     kernel32:KERNEL32.dll
 0000:fffa8000       .debug$S                   0000000180000000     kernel32:KERNEL32.dll
 0000:fffa8000       .debug$S                   0000000180000000     kernel32:KERNEL32.dll
 0000:fffa8000       .debug$S                   0000000180000000     kernel32:KERNEL32.dll
 0000:fffa8000       .debug$S                   0000000180000000     kernel32:KERNEL32.dll
 0000:fffa8000       .debug$S                   0000000180000000     kernel32:KERNEL32.dll
 0000:fffa8000       .debug$S                   0000000180000000     kernel32:KERNEL32.dll
 0000:fffa8000       .debug$S                   0000000180000000     kernel32:KERNEL32.dll
 0000:fffa8000       .debug$S                   0000000180000000     kernel32:KERNEL32.dll
 0000:fffa8000       .debug$S                   0000000180000000     kernel32:KERNEL32.dll
 0000:fffa8000       .debug$S                   0000000180000000     kernel32:KERNEL32.dll
 0000:fffa8000       .debug$S                   0000000180000000     kernel32:KERNEL32.dll
 0000:fffa8000       .debug$S                   0000000180000000     kernel32:KERNEL32.dll
 0000:fffa8000       .debug$S                   0000000180000000     kernel32:KERNEL32.dll
 0000:fffa8000       .debug$S                   0000000180000000     kernel32:KERNEL32.dll
 0000:fffa8000       .debug$S                   0000000180000000     kernel32:KERNEL32.dll
 0000:fffa8000       .debug$S                   0000000180000000     kernel32:KERNEL32.dll
 0000:fffa8000       .debug$S                   0000000180000000     kernel32:KERNEL32.dll
 0000:fffa8000       .debug$S                   0000000180000000     kernel32:KERNEL32.dll
 0000:fffa8000       .debug$S                   0000000180000000     kernel32:KERNEL32.dll
 0000:fffa8000       .debug$S                   0000000180000000     kernel32:KERNEL32.dll
 0000:fffa8000       .debug$S                   0000000180000000     kernel32:KERNEL32.dll
 0000:fffa8000       .debug$S                   0000000180000000     kernel32:KERNEL32.dll
 0000:fffa8000       .debug$S                   0000000180000000     kernel32:KERNEL32.dll
 0000:fffa8000       .debug$S                   0000000180000000     kernel32:KERNEL32.dll
 0000:fffa8000       .debug$S                   0000000180000000     kernel32:KERNEL32.dll
 0000:fffa8000       .debug$S                   0000000180000000     kernel32:KERNEL32.dll
 0000:fffa8000       .debug$S                   0000000180000000     kernel32:KERNEL32.dll
 0000:fffa8000       .debug$S                   0000000180000000     kernel32:KERNEL32.dll
 0000:fffa8000       .debug$S                   0000000180000000     kernel32:KERNEL32.dll
 0000:fffa8000       .debug$S                   0000000180000000     kernel32:KERNEL32.dll
 0000:fffa8000       .debug$S                   0000000180000000     kernel32:KERNEL32.dll
 0000:fffa8000       .debug$S                   0000000180000000     kernel32:KERNEL32.dll
 0000:fffa8000       .debug$S                   0000000180000000     kernel32:KERNEL32.dll
 0000:fffa8000       .debug$S                   0000000180000000     kernel32:KERNEL32.dll
 0000:fffa8000       .debug$S                   0000000180000000     kernel32:KERNEL32.dll
 0000:fffa8000       .debug$S                   0000000180000000     kernel32:KERNEL32.dll
 0000:fffa8000       .debug$S                   0000000180000000     kernel32:KERNEL32.dll
 0000:fffa8000       .debug$S                   0000000180000000     kernel32:KERNEL32.dll
 0000:fffa8000       .debug$S                   0000000180000000     kernel32:KERNEL32.dll
 0000:fffa8000       .debug$S                   0000000180000000     kernel32:KERNEL32.dll
 0000:fffa8000       .debug$S                   0000000180000000     kernel32:KERNEL32.dll
 0000:fffa8000       .debug$S                   0000000180000000     kernel32:KERNEL32.dll
 0000:fffa8000       .debug$S                   0000000180000000     kernel32:KERNEL32.dll
 0000:fffa8000       .debug$S                   0000000180000000     kernel32:KERNEL32.dll
 0000:fffa8000       .debug$S                   0000000180000000     kernel32:KERNEL32.dll
 0000:fffa8000       .debug$S                   0000000180000000     kernel32:KERNEL32.dll
 0000:fffa8000       .debug$S                   0000000180000000     kernel32:KERNEL32.dll
 0000:fffa8000       .debug$S                   0000000180000000     kernel32:KERNEL32.dll
 0000:fffa8000       .debug$S                   0000000180000000     kernel32:KERNEL32.dll
 0000:fffa8000       .debug$S                   0000000180000000     kernel32:KERNEL32.dll
 0000:fffa8000       .debug$S                   0000000180000000     kernel32:KERNEL32.dll
 0000:fffa8000       .debug$S                   0000000180000000     kernel32:KERNEL32.dll
 0000:fffa8000       .debug$S                   0000000180000000     kernel32:KERNEL32.dll
 0000:fffa8000       .debug$S                   0000000180000000     kernel32:KERNEL32.dll
 0000:fffa8000       .debug$S                   0000000180000000     kernel32:KERNEL32.dll
 0000:fffa8000       .debug$S                   0000000180000000     kernel32:KERNEL32.dll
 0000:fffa8000       .debug$S                   0000000180000000     kernel32:KERNEL32.dll
 0000:fffa8000       .debug$S                   0000000180000000     kernel32:KERNEL32.dll
 0000:fffa8000       .debug$S                   0000000180000000     kernel32:KERNEL32.dll
 0000:fffa8000       .debug$S                   0000000180000000     kernel32:KERNEL32.dll
 0000:fffa8000       .debug$S                   0000000180000000     kernel32:KERNEL32.dll
 0000:fffa8000       .debug$S                   0000000180000000     kernel32:KERNEL32.dll
 0000:fffa8000       .debug$S                   0000000180000000     kernel32:KERNEL32.dll
 0000:fffa8000       .debug$S                   0000000180000000     kernel32:KERNEL32.dll
 0000:fffa8000       .debug$S                   0000000180000000     shell32:SHELL32.dll
 0000:fffa8000       .debug$S                   0000000180000000     node:node.exe
 0000:fffa8000       .debug$S                   0000000180000000     node:node.exe
 0000:fffa8000       .debug$S                   0000000180000000     node:node.exe
 0000:fffa8000       .debug$S                   0000000180000000     node:node.exe
 0000:fffa8000       .debug$S                   0000000180000000     node:node.exe
 0000:fffa8000       .debug$S                   0000000180000000     node:node.exe
 0000:fffa8000       .debug$S                   0000000180000000     node:node.exe
 0000:fffa8000       .debug$S                   0000000180000000     node:node.exe
 0000:fffa8000       .debug$S                   0000000180000000     node:node.exe
 0000:fffa8000       .debug$S                   0000000180000000     node:node.exe
 0000:fffa8000       .debug$S                   0000000180000000     node:node.exe
 0000:fffa8000       .debug$S                   0000000180000000     node:node.exe
 0000:fffa8000       .debug$S                   0000000180000000     node:node.exe
 0000:fffa8000       .debug$S                   0000000180000000     node:node.exe
 0000:fffa8000       .debug$S                   0000000180000000     node:node.exe
 0000:fffa8000       .debug$S                   0000000180000000     node:node.exe
 0000:fffa8000       .debug$S                   0000000180000000     node:node.exe
 0000:fffa8000       .debug$S                   0000000180000000     node:node.exe
 0000:fffa8000       .debug$S                   0000000180000000     node:node.exe
 0000:fffa8000       .debug$S                   0000000180000000     node:node.exe
 0000:fffa8000       .debug$S                   0000000180000000     node:node.exe
 0000:fffa8000       .debug$S                   0000000180000000     node:node.exe
 0000:fffa8000       .debug$S                   0000000180000000     node:node.exe
 0000:fffa8000       .debug$S                   0000000180000000     node:node.exe
 0000:fffa8000       .debug$S                   0000000180000000     node:node.exe
 0000:fffa8000       .debug$S                   0000000180000000     node:node.exe
 0000:fffa8000       .debug$S                   0000000180000000     node:node.exe
 0000:fffa8000       .debug$S                   0000000180000000     node:node.exe
 0000:fffa8000       .debug$S                   0000000180000000     node:node.exe
 0000:fffa8000       .debug$S                   0000000180000000     node:node.exe
 0000:fffa8000       .debug$S                   0000000180000000     node:node.exe
 0000:fffa8000       .debug$S                   0000000180000000     node:node.exe
 0000:fffa8000       .debug$S                   0000000180000000     node:node.exe
 0000:fffa8000       .debug$S                   0000000180000000     node:node.exe
 0000:fffa8000       .debug$S                   0000000180000000     node:node.exe
 0000:fffa8000       .debug$S                   0000000180000000     node:node.exe
 0000:fffa8000       .debug$S                   0000000180000000     node:node.exe
 0000:fffa8000       .debug$S                   0000000180000000     node:node.exe
 0000:fffa8000       .debug$S                   0000000180000000     node:node.exe
 0000:fffa8000       .debug$S                   0000000180000000     node:node.exe
 0000:fffa8000       .debug$S                   0000000180000000     node:node.exe
 0000:fffa8000       .debug$S                   0000000180000000     node:node.exe
 0000:fffa8000       .debug$S                   0000000180000000     node:node.exe
 0000:fffa8000       .debug$S                   0000000180000000     node:node.exe
 0000:fffa8000       .debug$S                   0000000180000000     node:node.exe
 0000:fffa8000       .debug$S                   0000000180000000     node:node.exe
 0000:fffa8000       .debug$S                   0000000180000000     node:node.exe
 0000:fffa8000       .debug$S                   0000000180000000     node:node.exe
 0000:fffa8000       .debug$S                   0000000180000000     node:node.exe
 0000:fffa8000       .debug$S                   0000000180000000     node:node.exe
 0000:fffa8000       .debug$S                   0000000180000000     node:node.exe
 0000:fffa8000       .debug$S                   0000000180000000     node:node.exe
 0000:fffa8000       .debug$S                   0000000180000000     node:node.exe
 0000:fffa8000       .debug$S                   0000000180000000     node:node.exe
 0000:fffa8000       .debug$S                   0000000180000000     node:node.exe
 0000:fffa8000       .debug$S                   0000000180000000     node:node.exe
 0000:fffa8000       .debug$S                   0000000180000000     node:node.exe
 0000:fffa8000       .debug$S                   0000000180000000     node:node.exe
 0000:fffa8000       .debug$S                   0000000180000000     node:node.exe
 0000:fffa8000       .debug$S                   0000000180000000     node:node.exe
 0000:fffa8000       .debug$S                   0000000180000000     node:node.exe
 0000:fffa8000       .debug$S                   0000000180000000     node:node.exe
 0000:fffa8000       .debug$S                   0000000180000000     node:node.exe
 0001:00000000       ??__Epiecewise_construct@std@@YAXXZ 0000000180001000 f   init.obj
 0001:00000010       ??__Eallocator_arg@std@@YAXXZ 0000000180001010 f   init.obj
 0001:00000020       ??__Epiecewise_construct@std@@YAXXZ 0000000180001020 f   image.obj
 0001:00000030       ??__Eallocator_arg@std@@YAXXZ 0000000180001030 f   image.obj
 0001:00000040       ??__E?constructor@LwipImage@@0V?$Persistent@VFunctionTemplate@v8@@V?$NonCopyablePersistentTraits@VFunctionTemplate@v8@@@2@@Nan@@A@@YAXXZ 0000000180001040 f   image.obj
 0001:00000060       ??__Epiecewise_construct@std@@YAXXZ 0000000180001060 f   resize_worker.obj
 0001:00000070       ??__Eallocator_arg@std@@YAXXZ 0000000180001070 f   resize_worker.obj
 0001:00000080       ??__Epiecewise_construct@std@@YAXXZ 0000000180001080 f   rotate_worker.obj
 0001:00000090       ??__Eallocator_arg@std@@YAXXZ 0000000180001090 f   rotate_worker.obj
 0001:000000a0       ??__Epiecewise_construct@std@@YAXXZ 00000001800010a0 f   blur_worker.obj
 0001:000000b0       ??__Eallocator_arg@std@@YAXXZ 00000001800010b0 f   blur_worker.obj
 0001:000000c0       ??__Epiecewise_construct@std@@YAXXZ 00000001800010c0 f   crop_worker.obj
 0001:000000d0       ??__Eallocator_arg@std@@YAXXZ 00000001800010d0 f   crop_worker.obj
 0001:000000e0       ??__Epiecewise_construct@std@@YAXXZ 00000001800010e0 f   mirror_worker.obj
 0001:000000f0       ??__Eallocator_arg@std@@YAXXZ 00000001800010f0 f   mirror_worker.obj
 0001:00000100       ??__Epiecewise_construct@std@@YAXXZ 0000000180001100 f   pad_worker.obj
 0001:00000110       ??__Eallocator_arg@std@@YAXXZ 0000000180001110 f   pad_worker.obj
 0001:00000120       ??__Epiecewise_construct@std@@YAXXZ 0000000180001120 f   sharpen_worker.obj
 0001:00000130       ??__Eallocator_arg@std@@YAXXZ 0000000180001130 f   sharpen_worker.obj
 0001:00000140       ??__Epiecewise_construct@std@@YAXXZ 0000000180001140 f   hsla_worker.obj
 0001:00000150       ??__Eallocator_arg@std@@YAXXZ 0000000180001150 f   hsla_worker.obj
 0001:00000160       ??__Epiecewise_construct@std@@YAXXZ 0000000180001160 f   opacify_worker.obj
 0001:00000170       ??__Eallocator_arg@std@@YAXXZ 0000000180001170 f   opacify_worker.obj
 0001:00000180       ??__Epiecewise_construct@std@@YAXXZ 0000000180001180 f   paste_worker.obj
 0001:00000190       ??__Eallocator_arg@std@@YAXXZ 0000000180001190 f   paste_worker.obj
 0001:000001a0       ??__Epiecewise_construct@std@@YAXXZ 00000001800011a0 f   setpixel_worker.obj
 0001:000001b0       ??__Eallocator_arg@std@@YAXXZ 00000001800011b0 f   setpixel_worker.obj
 0001:000001d0       _register_lwip_image       00000001800011d0 f   init.obj
 0001:00000a80       ?FunctionCallbackWrapper@imp@Nan@@YAXAEBV?$FunctionCallbackInfo@VValue@v8@@@v8@@@Z 0000000180001a80 f   image.obj
 0001:0000d990       $LN2410                    000000018000e990     resize_worker.obj
 0001:00012540       load_exe_hook              0000000180013540 f   win_delay_load_hook.obj
 0001:00012a70       $$000000                   0000000180013a70     LIBCMT:amdsecgs.obj
 0001:00012aa0       $$000000                   0000000180013aa0     LIBCMT:memcpy.obj
 0001:00012b90       MoveSmall                  0000000180013b90     LIBCMT:memcpy.obj
 0001:00013fe4       swprintf                   0000000180014fe4 f   LIBCMT:wassert.obj
 0001:00014010       $$000000                   0000000180015010     LIBCMT:strncpy.obj
 0001:00014b30       __DllMainCRTStartup        0000000180015b30 f   LIBCMT:dllcrt0.obj
 0001:00014c50       $$000000                   0000000180015c50     LIBCMT:strlen.obj
 0001:00015f44       _initterm                  0000000180016f44 f   LIBCMT:crt0dat.obj
 0001:00015ff8       doexit                     0000000180016ff8 f   LIBCMT:crt0dat.obj
 0001:0001655c       _call_matherr              000000018001755c f   LIBCMT:libm_error.obj
 0001:000165c4       _exception_enabled         00000001800175c4 f   LIBCMT:libm_error.obj
 0001:0001772c       write_char                 000000018001872c f   LIBCMT:output.obj
 0001:0001772c       write_char                 000000018001872c f   LIBCMT:output.obj
 0001:00017774       write_multi_char           0000000180018774 f   LIBCMT:output.obj
 0001:00017774       write_multi_char           0000000180018774 f   LIBCMT:output.obj
 0001:000177c8       write_string               00000001800187c8 f   LIBCMT:output.obj
 0001:000177c8       write_string               00000001800187c8 f   LIBCMT:output.obj
 0001:00018370       $$000000                   0000000180019370     LIBCMT:memset.obj
 0001:00018515       MsetTab                    0000000180019515     LIBCMT:memset.obj
 0001:0001876c       flsall                     000000018001976c f   LIBCMT:fflush.obj
 0001:00018d74       xtow_s                     0000000180019d74 f   LIBCMT:xtows.obj
 0001:00019dc0       $$000000                   000000018001adc0     LIBCMT:jmpuwind.obj
 0001:0001a900       $$000000                   000000018001b900     LIBCMT:strcmp.obj
 0001:0001af68       ?getSystemCP@@YAHH@Z       000000018001bf68 f   LIBCMT:mbctype.obj
 0001:0001afe8       ?setSBCS@@YAXPEAUthreadmbcinfostruct@@@Z 000000018001bfe8 f   LIBCMT:mbctype.obj
 0001:0001b078       ?setSBUpLow@@YAXPEAUthreadmbcinfostruct@@@Z 000000018001c078 f   LIBCMT:mbctype.obj
 0001:0001bcc8       parse_cmdline              000000018001ccc8 f   LIBCMT:stdargv.obj
 0001:0001c8cc       ?CatchIt@@YAXPEAUEHExceptionRecord@@PEA_KPEAU_CONTEXT@@PEAU_xDISPATCHER_CONTEXT@@PEBU_s_FuncInfo@@PEBU_s_HandlerType@@PEBU_s_CatchableType@@PEBU_s_TryBlockMapEntry@@H1EE@Z 000000018001d8cc f   LIBCMT:frame.obj
 0001:0001c990       ?FindHandler@@YAXPEAUEHExceptionRecord@@PEA_KPEAU_CONTEXT@@PEAU_xDISPATCHER_CONTEXT@@PEBU_s_FuncInfo@@EH1@Z 000000018001d990 f   LIBCMT:frame.obj
 0001:0001ce44       ?FindHandlerForForeignException@@YAXPEAUEHExceptionRecord@@PEA_KPEAU_CONTEXT@@PEAU_xDISPATCHER_CONTEXT@@PEBU_s_FuncInfo@@HH1@Z 000000018001de44 f   LIBCMT:frame.obj
 0001:0001d0ac       ?IsInExceptionSpec@@YAEPEAUEHExceptionRecord@@PEBU_s_ESTypeList@@@Z 000000018001e0ac f   LIBCMT:frame.obj
 0001:0001e174       _cftoe2_l                  000000018001f174 f   LIBCMT:cvt.obj
 0001:0001e468       _cftof2_l                  000000018001f468 f   LIBCMT:cvt.obj
 0001:0001eeb0       $$000000                   000000018001feb0     LIBCMT:fpsr.obj
 0001:00020b58       write_char                 0000000180021b58 f   LIBCMT:woutput.obj
 0001:00020b90       write_multi_char           0000000180021b90 f   LIBCMT:woutput.obj
 0001:00020be4       write_string               0000000180021be4 f   LIBCMT:woutput.obj
 0001:00021688       ?__crtCompareStringA_stat@@YAHPEAUlocaleinfo_struct@@PEB_WKPEBDH2HH@Z 0000000180022688 f   LIBCMT:a_cmp.obj
 0001:0002247c       ?__crtLCMapStringA_stat@@YAHPEAUlocaleinfo_struct@@PEB_WKPEBDHPEADHHH@Z 000000018002347c f   LIBCMT:a_map.obj
 0001:00022800       ?__crtGetStringTypeA_stat@@YAHPEAUlocaleinfo_struct@@KPEBDHPEAGHH@Z 0000000180023800 f   LIBCMT:a_str.obj
 0001:00022ad0       $$000000                   0000000180023ad0     LIBCMT:memcmp.obj
 0001:00022ba8       ?x_ismbbtype_l@@YAHPEAUlocaleinfo_struct@@IHH@Z 0000000180023ba8 f   LIBCMT:ismbbyte.obj
 0001:00022c50       $$000000                   0000000180023c50     LIBCMT:handlers.obj
 0001:00023270       $$000000                   0000000180024270     LIBCMT:chkstk.obj
 0001:0002367c       __createFile               000000018002467c f   LIBCMT:wopen.obj
 0001:00023f30       $$000000                   0000000180024f30     LIBCMT:strncmp.obj
 0001:00027410       $$000000                   0000000180028410     LIBCMT:cos.obj
 0001:00027970       $$000000                   0000000180028970     LIBCMT:cosf.obj
 0001:00027e70       $$000000                   0000000180028e70     LIBCMT:expf.obj
 0001:000281e0       $$000000                   00000001800291e0     LIBCMT:powf.obj
 0001:00028d70       $$000000                   0000000180029d70     LIBCMT:sin.obj
 0001:00029290       $$000000                   000000018002a290     LIBCMT:sinf.obj
 0001:000299a0       $$000000                   000000018002a9a0     LIBCMT:remainder_piby2_forAsm.obj
 0001:00029cf0       $$000000                   000000018002acf0     LIBCMT:remainder_piby2_forFMA3.obj
 0001:0002a120       $$000000                   000000018002b120     LIBCMT:remainder_piby2f_forAsm.obj
 0001:0002a480       $$000000                   000000018002b480     LIBCMT:remainder_piby2f_forC.obj
 0001:0002a610       ?dtor$0@?0???1ObjectWrap@node@@UEAA@XZ@4HA 000000018002b610 f   image.obj
 0001:0002a620       ?dtor$0@?0??WeakCallback@ObjectWrap@node@@CAXAEBV?$WeakCallbackData@VObject@v8@@VObjectWrap@node@@@v8@@@Z@4HA 000000018002b620 f   image.obj
 0001:0002a630       ?dtor$0@?0??New@?$Factory@VFunctionTemplate@v8@@@imp@Nan@@SA?AV?$Local@VFunctionTemplate@v8@@@v8@@P6AXAEBV?$FunctionCallbackInfo@VValue@v8@@@3@@ZV?$Local@VValue@v8@@@5@V?$Local@VSignature@v8@@@5@@Z@4HA 000000018002b630 f   image.obj
 0001:0002a640       ?dtor$0@?0???0Callback@Nan@@QEAA@AEBV?$Local@VFunction@v8@@@v8@@@Z@4HA 000000018002b640 f   image.obj
 0001:0002a64c       ?dtor$1@?0???0Callback@Nan@@QEAA@AEBV?$Local@VFunction@v8@@@v8@@@Z@4HA 000000018002b64c f   image.obj
 0001:0002a658       ?dtor$3@?0???0Callback@Nan@@QEAA@AEBV?$Local@VFunction@v8@@@v8@@@Z@4HA 000000018002b658 f   image.obj
 0001:0002a670       ?dtor$1@?0???0CImgArgumentException@cimg_library@@QEAA@AEBU01@@Z@4HA 000000018002b670 f   image.obj
 0001:0002a670       ?dtor$1@?0???0CImgIOException@cimg_library@@QEAA@AEBU01@@Z@4HA 000000018002b670 f   image.obj
 0001:0002a670       ?dtor$1@?0???0CImgInstanceException@cimg_library@@QEAA@AEBU01@@Z@4HA 000000018002b670 f   image.obj
 0001:0002a670       ?dtor$0@?0???0CImgException@cimg_library@@QEAA@AEBU01@@Z@4HA 000000018002b670 f   image.obj
 0001:0002a680       ?dtor$1@?0???0CImgIOException@cimg_library@@QEAA@QEBDZZ@4HA 000000018002b680 f   image.obj
 0001:0002a680       ?dtor$1@?0???0CImgInstanceException@cimg_library@@QEAA@QEBDZZ@4HA 000000018002b680 f   image.obj
 0001:0002a680       ?dtor$1@?0???0CImgArgumentException@cimg_library@@QEAA@QEBDZZ@4HA 000000018002b680 f   image.obj
 0001:0002a68c       ?dtor$0@?0???0CImgInstanceException@cimg_library@@QEAA@QEBDZZ@4HA 000000018002b68c f   image.obj
 0001:0002a68c       ?dtor$0@?0???0CImgArgumentException@cimg_library@@QEAA@QEBDZZ@4HA 000000018002b68c f   image.obj
 0001:0002a68c       ?dtor$0@?0???0CImgIOException@cimg_library@@QEAA@QEBDZZ@4HA 000000018002b68c f   image.obj
 0001:0002a6a0       ?dtor$1@?0??temporary_path@cimg@cimg_library@@YAPEBDQEBD_N@Z@4HA 000000018002b6a0 f   image.obj
 0001:0002a6ac       ?dtor$2@?0??temporary_path@cimg@cimg_library@@YAPEBDQEBD_N@Z@4HA 000000018002b6ac f   image.obj
 0001:0002a6c0       ?dtor$0@?0??strbuffersize@cimg@cimg_library@@YAPEBDK@Z@4HA 000000018002b6c0 f   image.obj
 0001:0002a6e0       ?dtor$0@?0??Init@LwipImage@@SAXV?$Local@VObject@v8@@@v8@@@Z@4HA 000000018002b6e0 f   image.obj
 0001:0002a6ec       ?dtor$3@?0??Init@LwipImage@@SAXV?$Local@VObject@v8@@@v8@@@Z@4HA 000000018002b6ec f   image.obj
 0001:0002a6f8       ?dtor$6@?0??Init@LwipImage@@SAXV?$Local@VObject@v8@@@v8@@@Z@4HA 000000018002b6f8 f   image.obj
 0001:0002a704       ?dtor$9@?0??Init@LwipImage@@SAXV?$Local@VObject@v8@@@v8@@@Z@4HA 000000018002b704 f   image.obj
 0001:0002a710       ?dtor$12@?0??Init@LwipImage@@SAXV?$Local@VObject@v8@@@v8@@@Z@4HA 000000018002b710 f   image.obj
 0001:0002a71c       ?dtor$15@?0??Init@LwipImage@@SAXV?$Local@VObject@v8@@@v8@@@Z@4HA 000000018002b71c f   image.obj
 0001:0002a728       ?dtor$18@?0??Init@LwipImage@@SAXV?$Local@VObject@v8@@@v8@@@Z@4HA 000000018002b728 f   image.obj
 0001:0002a734       ?dtor$21@?0??Init@LwipImage@@SAXV?$Local@VObject@v8@@@v8@@@Z@4HA 000000018002b734 f   image.obj
 0001:0002a740       ?dtor$24@?0??Init@LwipImage@@SAXV?$Local@VObject@v8@@@v8@@@Z@4HA 000000018002b740 f   image.obj
 0001:0002a74c       ?dtor$27@?0??Init@LwipImage@@SAXV?$Local@VObject@v8@@@v8@@@Z@4HA 000000018002b74c f   image.obj
 0001:0002a758       ?dtor$30@?0??Init@LwipImage@@SAXV?$Local@VObject@v8@@@v8@@@Z@4HA 000000018002b758 f   image.obj
 0001:0002a764       ?dtor$33@?0??Init@LwipImage@@SAXV?$Local@VObject@v8@@@v8@@@Z@4HA 000000018002b764 f   image.obj
 0001:0002a770       ?dtor$36@?0??Init@LwipImage@@SAXV?$Local@VObject@v8@@@v8@@@Z@4HA 000000018002b770 f   image.obj
 0001:0002a77c       ?dtor$39@?0??Init@LwipImage@@SAXV?$Local@VObject@v8@@@v8@@@Z@4HA 000000018002b77c f   image.obj
 0001:0002a788       ?dtor$42@?0??Init@LwipImage@@SAXV?$Local@VObject@v8@@@v8@@@Z@4HA 000000018002b788 f   image.obj
 0001:0002a7a0       ?dtor$0@?0???0LwipImage@@QEAA@PEAE_K1@Z@4HA 000000018002b7a0 f   image.obj
 0001:0002a7ac       ?dtor$1@?0???0LwipImage@@QEAA@PEAE_K1@Z@4HA 000000018002b7ac f   image.obj
 0001:0002a7c0       ?dtor$0@?0???_GLwipImage@@UEAAPEAXI@Z@4HA 000000018002b7c0 f   image.obj
 0001:0002a7d0       ?dtor$1@?0??New@LwipImage@@SAXAEBV?$FunctionCallbackInfo@VValue@v8@@@Nan@@@Z@4HA 000000018002b7d0 f   image.obj
 0001:0002a7e0       ?dtor$1@?0??resize@LwipImage@@SAXAEBV?$FunctionCallbackInfo@VValue@v8@@@Nan@@@Z@4HA 000000018002b7e0 f   image.obj
 0001:0002a7ec       ?dtor$2@?0??resize@LwipImage@@SAXAEBV?$FunctionCallbackInfo@VValue@v8@@@Nan@@@Z@4HA 000000018002b7ec f   image.obj
 0001:0002a800       ?dtor$1@?0??rotate@LwipImage@@SAXAEBV?$FunctionCallbackInfo@VValue@v8@@@Nan@@@Z@4HA 000000018002b800 f   image.obj
 0001:0002a800       ?dtor$1@?0??crop@LwipImage@@SAXAEBV?$FunctionCallbackInfo@VValue@v8@@@Nan@@@Z@4HA 000000018002b800 f   image.obj
 0001:0002a80c       ?dtor$2@?0??crop@LwipImage@@SAXAEBV?$FunctionCallbackInfo@VValue@v8@@@Nan@@@Z@4HA 000000018002b80c f   image.obj
 0001:0002a80c       ?dtor$2@?0??rotate@LwipImage@@SAXAEBV?$FunctionCallbackInfo@VValue@v8@@@Nan@@@Z@4HA 000000018002b80c f   image.obj
 0001:0002a820       ?dtor$1@?0??sharpen@LwipImage@@SAXAEBV?$FunctionCallbackInfo@VValue@v8@@@Nan@@@Z@4HA 000000018002b820 f   image.obj
 0001:0002a820       ?dtor$1@?0??blur@LwipImage@@SAXAEBV?$FunctionCallbackInfo@VValue@v8@@@Nan@@@Z@4HA 000000018002b820 f   image.obj
 0001:0002a820       ?dtor$1@?0??mirror@LwipImage@@SAXAEBV?$FunctionCallbackInfo@VValue@v8@@@Nan@@@Z@4HA 000000018002b820 f   image.obj
 0001:0002a82c       ?dtor$2@?0??blur@LwipImage@@SAXAEBV?$FunctionCallbackInfo@VValue@v8@@@Nan@@@Z@4HA 000000018002b82c f   image.obj
 0001:0002a82c       ?dtor$2@?0??sharpen@LwipImage@@SAXAEBV?$FunctionCallbackInfo@VValue@v8@@@Nan@@@Z@4HA 000000018002b82c f   image.obj
 0001:0002a82c       ?dtor$2@?0??mirror@LwipImage@@SAXAEBV?$FunctionCallbackInfo@VValue@v8@@@Nan@@@Z@4HA 000000018002b82c f   image.obj
 0001:0002a840       ?dtor$1@?0??pad@LwipImage@@SAXAEBV?$FunctionCallbackInfo@VValue@v8@@@Nan@@@Z@4HA 000000018002b840 f   image.obj
 0001:0002a84c       ?dtor$2@?0??pad@LwipImage@@SAXAEBV?$FunctionCallbackInfo@VValue@v8@@@Nan@@@Z@4HA 000000018002b84c f   image.obj
 0001:0002a860       ?dtor$1@?0??hslaAdj@LwipImage@@SAXAEBV?$FunctionCallbackInfo@VValue@v8@@@Nan@@@Z@4HA 000000018002b860 f   image.obj
 0001:0002a86c       ?dtor$2@?0??hslaAdj@LwipImage@@SAXAEBV?$FunctionCallbackInfo@VValue@v8@@@Nan@@@Z@4HA 000000018002b86c f   image.obj
 0001:0002a880       ?dtor$1@?0??opacify@LwipImage@@SAXAEBV?$FunctionCallbackInfo@VValue@v8@@@Nan@@@Z@4HA 000000018002b880 f   image.obj
 0001:0002a88c       ?dtor$2@?0??opacify@LwipImage@@SAXAEBV?$FunctionCallbackInfo@VValue@v8@@@Nan@@@Z@4HA 000000018002b88c f   image.obj
 0001:0002a8a0       ?dtor$1@?0??paste@LwipImage@@SAXAEBV?$FunctionCallbackInfo@VValue@v8@@@Nan@@@Z@4HA 000000018002b8a0 f   image.obj
 0001:0002a8ac       ?dtor$2@?0??paste@LwipImage@@SAXAEBV?$FunctionCallbackInfo@VValue@v8@@@Nan@@@Z@4HA 000000018002b8ac f   image.obj
 0001:0002a8c0       ?dtor$1@?0??setPixel@LwipImage@@SAXAEBV?$FunctionCallbackInfo@VValue@v8@@@Nan@@@Z@4HA 000000018002b8c0 f   image.obj
 0001:0002a8cc       ?dtor$2@?0??setPixel@LwipImage@@SAXAEBV?$FunctionCallbackInfo@VValue@v8@@@Nan@@@Z@4HA 000000018002b8cc f   image.obj
 0001:0002a8e0       ?catch$0@?0???0?$CImg@D@cimg_library@@QEAA@IIII@Z@4HA 000000018002b8e0 f   image.obj
 0001:0002a8ef       __catch$??0?$CImg@D@cimg_library@@QEAA@IIII@Z$0 000000018002b8ef f   image.obj
 0001:0002a9b0       ?catch$0@?0??assign@?$CImg@D@cimg_library@@QEAAAEAU12@IIII@Z@4HA 000000018002b9b0 f   image.obj
 0001:0002a9bf       __catch$?assign@?$CImg@D@cimg_library@@QEAAAEAU12@IIII@Z$0 000000018002b9bf f   image.obj
 0001:0002aa80       ?catch$0@?0???0?$CImg@E@cimg_library@@QEAA@QEBEIIII_N@Z@4HA 000000018002ba80 f   image.obj
 0001:0002aa90       __catch$??0?$CImg@E@cimg_library@@QEAA@QEBEIIII_N@Z$0 000000018002ba90 f   image.obj
 0001:0002ab50       ?catch$0@?0???0?$CImg@E@cimg_library@@QEAA@IIII@Z@4HA 000000018002bb50 f   image.obj
 0001:0002ab64       __catch$??0?$CImg@E@cimg_library@@QEAA@IIII@Z$0 000000018002bb64 f   image.obj
 0001:0002ac30       ?catch$0@?0???0?$CImg@E@cimg_library@@QEAA@AEBU01@@Z@4HA 000000018002bc30 f   image.obj
 0001:0002ac44       __catch$??0?$CImg@E@cimg_library@@QEAA@AEBU01@@Z$0 000000018002bc44 f   image.obj
 0001:0002ad10       ?dtor$0@?0??Call_@Callback@Nan@@AEBA?AV?$Local@VValue@v8@@@v8@@PEAVIsolate@4@V?$Local@VObject@v8@@@4@HQEAV34@@Z@4HA 000000018002bd10 f   resize_worker.obj
 0001:0002ad10       ?dtor$0@?0??HandleErrorCallback@AsyncWorker@Nan@@MEAAXXZ@4HA 000000018002bd10 f   resize_worker.obj
 0001:0002ad20       ?dtor$0@?0???0AsyncWorker@Nan@@QEAA@PEAVCallback@1@@Z@4HA 000000018002bd20 f   resize_worker.obj
 0001:0002ad33       ?dtor$1@?0???0AsyncWorker@Nan@@QEAA@PEAVCallback@1@@Z@4HA 000000018002bd33 f   resize_worker.obj
 0001:0002ad40       ?dtor$0@?0???1AsyncWorker@Nan@@UEAA@XZ@4HA 000000018002bd40 f   resize_worker.obj
 0001:0002ad53       ?dtor$1@?0???1AsyncWorker@Nan@@UEAA@XZ@4HA 000000018002bd53 f   resize_worker.obj
 0001:0002ad5f       ?dtor$3@?0???1AsyncWorker@Nan@@UEAA@XZ@4HA 000000018002bd5f f   resize_worker.obj
 0001:0002ad70       ?dtor$0@?0??WorkComplete@AsyncWorker@Nan@@UEAAXXZ@4HA 000000018002bd70 f   resize_worker.obj
 0001:0002ad7c       ?dtor$2@?0??WorkComplete@AsyncWorker@Nan@@UEAAXXZ@4HA 000000018002bd7c f   resize_worker.obj
 0001:0002ad90       ?catch$0@?0??Execute@ResizeWorker@@UEAAXXZ@4HA 000000018002bd90 f   resize_worker.obj
 0001:0002ad9d       __catch$?Execute@ResizeWorker@@UEAAXXZ$0 000000018002bd9d f   resize_worker.obj
 0001:0002adc9       ?dtor$0@?0??Execute@ResizeWorker@@UEAAXXZ@4HA 000000018002bdc9 f   resize_worker.obj
 0001:0002ade0       ?catch$0@?0???0?$CImg@K@cimg_library@@QEAA@IIII@Z@4HA 000000018002bde0 f   resize_worker.obj
 0001:0002adef       __catch$??0?$CImg@K@cimg_library@@QEAA@IIII@Z$0 000000018002bdef f   resize_worker.obj
 0001:0002aeb0       ?dtor$0@?0??crop@?$CImg@E@cimg_library@@QEAAAEAU12@HHHHHHHH_N@Z@4HA 000000018002beb0 f   crop_worker.obj
 0001:0002aeb0       ?dtor$0@?0??resize@?$CImg@E@cimg_library@@QEAAAEAU12@HHHHHIMMMM@Z@4HA 000000018002beb0 f   resize_worker.obj
 0001:0002aec0       ?dtor$0@?0??get_resize@?$CImg@E@cimg_library@@QEBA?AU12@HHHHHIMMMM@Z@4HA 000000018002bec0 f   resize_worker.obj
 0001:0002aee9       ?dtor$1@?0??get_resize@?$CImg@E@cimg_library@@QEBA?AU12@HHHHHIMMMM@Z@4HA 000000018002bee9 f   resize_worker.obj
 0001:0002aef5       ?dtor$11@?0??get_resize@?$CImg@E@cimg_library@@QEBA?AU12@HHHHHIMMMM@Z@4HA 000000018002bef5 f   resize_worker.obj
 0001:0002af01       ?dtor$12@?0??get_resize@?$CImg@E@cimg_library@@QEBA?AU12@HHHHHIMMMM@Z@4HA 000000018002bf01 f   resize_worker.obj
 0001:0002af0d       ?dtor$13@?0??get_resize@?$CImg@E@cimg_library@@QEBA?AU12@HHHHHIMMMM@Z@4HA 000000018002bf0d f   resize_worker.obj
 0001:0002af19       ?dtor$15@?0??get_resize@?$CImg@E@cimg_library@@QEBA?AU12@HHHHHIMMMM@Z@4HA 000000018002bf19 f   resize_worker.obj
 0001:0002af25       ?dtor$16@?0??get_resize@?$CImg@E@cimg_library@@QEBA?AU12@HHHHHIMMMM@Z@4HA 000000018002bf25 f   resize_worker.obj
 0001:0002af31       ?dtor$17@?0??get_resize@?$CImg@E@cimg_library@@QEBA?AU12@HHHHHIMMMM@Z@4HA 000000018002bf31 f   resize_worker.obj
 0001:0002af3d       ?dtor$18@?0??get_resize@?$CImg@E@cimg_library@@QEBA?AU12@HHHHHIMMMM@Z@4HA 000000018002bf3d f   resize_worker.obj
 0001:0002af49       ?dtor$19@?0??get_resize@?$CImg@E@cimg_library@@QEBA?AU12@HHHHHIMMMM@Z@4HA 000000018002bf49 f   resize_worker.obj
 0001:0002af55       ?dtor$20@?0??get_resize@?$CImg@E@cimg_library@@QEBA?AU12@HHHHHIMMMM@Z@4HA 000000018002bf55 f   resize_worker.obj
 0001:0002af61       ?dtor$21@?0??get_resize@?$CImg@E@cimg_library@@QEBA?AU12@HHHHHIMMMM@Z@4HA 000000018002bf61 f   resize_worker.obj
 0001:0002af6d       ?dtor$22@?0??get_resize@?$CImg@E@cimg_library@@QEBA?AU12@HHHHHIMMMM@Z@4HA 000000018002bf6d f   resize_worker.obj
 0001:0002af79       ?dtor$23@?0??get_resize@?$CImg@E@cimg_library@@QEBA?AU12@HHHHHIMMMM@Z@4HA 000000018002bf79 f   resize_worker.obj
 0001:0002af85       ?dtor$24@?0??get_resize@?$CImg@E@cimg_library@@QEBA?AU12@HHHHHIMMMM@Z@4HA 000000018002bf85 f   resize_worker.obj
 0001:0002af91       ?dtor$25@?0??get_resize@?$CImg@E@cimg_library@@QEBA?AU12@HHHHHIMMMM@Z@4HA 000000018002bf91 f   resize_worker.obj
 0001:0002af9d       ?dtor$26@?0??get_resize@?$CImg@E@cimg_library@@QEBA?AU12@HHHHHIMMMM@Z@4HA 000000018002bf9d f   resize_worker.obj
 0001:0002afa9       ?dtor$27@?0??get_resize@?$CImg@E@cimg_library@@QEBA?AU12@HHHHHIMMMM@Z@4HA 000000018002bfa9 f   resize_worker.obj
 0001:0002afb5       ?dtor$28@?0??get_resize@?$CImg@E@cimg_library@@QEBA?AU12@HHHHHIMMMM@Z@4HA 000000018002bfb5 f   resize_worker.obj
 0001:0002afc1       ?dtor$29@?0??get_resize@?$CImg@E@cimg_library@@QEBA?AU12@HHHHHIMMMM@Z@4HA 000000018002bfc1 f   resize_worker.obj
 0001:0002afcd       ?dtor$30@?0??get_resize@?$CImg@E@cimg_library@@QEBA?AU12@HHHHHIMMMM@Z@4HA 000000018002bfcd f   resize_worker.obj
 0001:0002afd9       ?dtor$31@?0??get_resize@?$CImg@E@cimg_library@@QEBA?AU12@HHHHHIMMMM@Z@4HA 000000018002bfd9 f   resize_worker.obj
 0001:0002afe5       ?dtor$32@?0??get_resize@?$CImg@E@cimg_library@@QEBA?AU12@HHHHHIMMMM@Z@4HA 000000018002bfe5 f   resize_worker.obj
 0001:0002aff1       ?dtor$33@?0??get_resize@?$CImg@E@cimg_library@@QEBA?AU12@HHHHHIMMMM@Z@4HA 000000018002bff1 f   resize_worker.obj
 0001:0002b01a       ?dtor$34@?0??get_resize@?$CImg@E@cimg_library@@QEBA?AU12@HHHHHIMMMM@Z@4HA 000000018002c01a f   resize_worker.obj
 0001:0002b043       ?dtor$35@?0??get_resize@?$CImg@E@cimg_library@@QEBA?AU12@HHHHHIMMMM@Z@4HA 000000018002c043 f   resize_worker.obj
 0001:0002b06c       ?dtor$36@?0??get_resize@?$CImg@E@cimg_library@@QEBA?AU12@HHHHHIMMMM@Z@4HA 000000018002c06c f   resize_worker.obj
 0001:0002b095       ?dtor$37@?0??get_resize@?$CImg@E@cimg_library@@QEBA?AU12@HHHHHIMMMM@Z@4HA 000000018002c095 f   resize_worker.obj
 0001:0002b0be       ?dtor$38@?0??get_resize@?$CImg@E@cimg_library@@QEBA?AU12@HHHHHIMMMM@Z@4HA 000000018002c0be f   resize_worker.obj
 0001:0002b0e7       ?dtor$39@?0??get_resize@?$CImg@E@cimg_library@@QEBA?AU12@HHHHHIMMMM@Z@4HA 000000018002c0e7 f   resize_worker.obj
 0001:0002b115       ?dtor$40@?0??get_resize@?$CImg@E@cimg_library@@QEBA?AU12@HHHHHIMMMM@Z@4HA 000000018002c115 f   resize_worker.obj
 0001:0002b143       ?dtor$41@?0??get_resize@?$CImg@E@cimg_library@@QEBA?AU12@HHHHHIMMMM@Z@4HA 000000018002c143 f   resize_worker.obj
 0001:0002b14f       ?dtor$42@?0??get_resize@?$CImg@E@cimg_library@@QEBA?AU12@HHHHHIMMMM@Z@4HA 000000018002c14f f   resize_worker.obj
 0001:0002b15b       ?dtor$43@?0??get_resize@?$CImg@E@cimg_library@@QEBA?AU12@HHHHHIMMMM@Z@4HA 000000018002c15b f   resize_worker.obj
 0001:0002b167       ?dtor$44@?0??get_resize@?$CImg@E@cimg_library@@QEBA?AU12@HHHHHIMMMM@Z@4HA 000000018002c167 f   resize_worker.obj
 0001:0002b173       ?dtor$45@?0??get_resize@?$CImg@E@cimg_library@@QEBA?AU12@HHHHHIMMMM@Z@4HA 000000018002c173 f   resize_worker.obj
 0001:0002b17f       ?dtor$46@?0??get_resize@?$CImg@E@cimg_library@@QEBA?AU12@HHHHHIMMMM@Z@4HA 000000018002c17f f   resize_worker.obj
 0001:0002b18b       ?dtor$47@?0??get_resize@?$CImg@E@cimg_library@@QEBA?AU12@HHHHHIMMMM@Z@4HA 000000018002c18b f   resize_worker.obj
 0001:0002b197       ?dtor$48@?0??get_resize@?$CImg@E@cimg_library@@QEBA?AU12@HHHHHIMMMM@Z@4HA 000000018002c197 f   resize_worker.obj
 0001:0002b1a3       ?dtor$49@?0??get_resize@?$CImg@E@cimg_library@@QEBA?AU12@HHHHHIMMMM@Z@4HA 000000018002c1a3 f   resize_worker.obj
 0001:0002b1d1       ?dtor$50@?0??get_resize@?$CImg@E@cimg_library@@QEBA?AU12@HHHHHIMMMM@Z@4HA 000000018002c1d1 f   resize_worker.obj
 0001:0002b1ff       ?dtor$51@?0??get_resize@?$CImg@E@cimg_library@@QEBA?AU12@HHHHHIMMMM@Z@4HA 000000018002c1ff f   resize_worker.obj
 0001:0002b22d       ?dtor$52@?0??get_resize@?$CImg@E@cimg_library@@QEBA?AU12@HHHHHIMMMM@Z@4HA 000000018002c22d f   resize_worker.obj
 0001:0002b25b       ?dtor$53@?0??get_resize@?$CImg@E@cimg_library@@QEBA?AU12@HHHHHIMMMM@Z@4HA 000000018002c25b f   resize_worker.obj
 0001:0002b289       ?dtor$54@?0??get_resize@?$CImg@E@cimg_library@@QEBA?AU12@HHHHHIMMMM@Z@4HA 000000018002c289 f   resize_worker.obj
 0001:0002b2b7       ?dtor$55@?0??get_resize@?$CImg@E@cimg_library@@QEBA?AU12@HHHHHIMMMM@Z@4HA 000000018002c2b7 f   resize_worker.obj
 0001:0002b2e5       ?dtor$56@?0??get_resize@?$CImg@E@cimg_library@@QEBA?AU12@HHHHHIMMMM@Z@4HA 000000018002c2e5 f   resize_worker.obj
 0001:0002b313       ?dtor$57@?0??get_resize@?$CImg@E@cimg_library@@QEBA?AU12@HHHHHIMMMM@Z@4HA 000000018002c313 f   resize_worker.obj
 0001:0002b31f       ?dtor$58@?0??get_resize@?$CImg@E@cimg_library@@QEBA?AU12@HHHHHIMMMM@Z@4HA 000000018002c31f f   resize_worker.obj
 0001:0002b32b       ?dtor$59@?0??get_resize@?$CImg@E@cimg_library@@QEBA?AU12@HHHHHIMMMM@Z@4HA 000000018002c32b f   resize_worker.obj
 0001:0002b337       ?dtor$60@?0??get_resize@?$CImg@E@cimg_library@@QEBA?AU12@HHHHHIMMMM@Z@4HA 000000018002c337 f   resize_worker.obj
 0001:0002b343       ?dtor$61@?0??get_resize@?$CImg@E@cimg_library@@QEBA?AU12@HHHHHIMMMM@Z@4HA 000000018002c343 f   resize_worker.obj
 0001:0002b34f       ?dtor$62@?0??get_resize@?$CImg@E@cimg_library@@QEBA?AU12@HHHHHIMMMM@Z@4HA 000000018002c34f f   resize_worker.obj
 0001:0002b35b       ?dtor$63@?0??get_resize@?$CImg@E@cimg_library@@QEBA?AU12@HHHHHIMMMM@Z@4HA 000000018002c35b f   resize_worker.obj
 0001:0002b367       ?dtor$64@?0??get_resize@?$CImg@E@cimg_library@@QEBA?AU12@HHHHHIMMMM@Z@4HA 000000018002c367 f   resize_worker.obj
 0001:0002b373       ?dtor$65@?0??get_resize@?$CImg@E@cimg_library@@QEBA?AU12@HHHHHIMMMM@Z@4HA 000000018002c373 f   resize_worker.obj
 0001:0002b37f       ?dtor$66@?0??get_resize@?$CImg@E@cimg_library@@QEBA?AU12@HHHHHIMMMM@Z@4HA 000000018002c37f f   resize_worker.obj
 0001:0002b38b       ?dtor$67@?0??get_resize@?$CImg@E@cimg_library@@QEBA?AU12@HHHHHIMMMM@Z@4HA 000000018002c38b f   resize_worker.obj
 0001:0002b397       ?dtor$68@?0??get_resize@?$CImg@E@cimg_library@@QEBA?AU12@HHHHHIMMMM@Z@4HA 000000018002c397 f   resize_worker.obj
 0001:0002b3a3       ?dtor$69@?0??get_resize@?$CImg@E@cimg_library@@QEBA?AU12@HHHHHIMMMM@Z@4HA 000000018002c3a3 f   resize_worker.obj
 0001:0002b3af       ?dtor$70@?0??get_resize@?$CImg@E@cimg_library@@QEBA?AU12@HHHHHIMMMM@Z@4HA 000000018002c3af f   resize_worker.obj
 0001:0002b3bb       ?dtor$71@?0??get_resize@?$CImg@E@cimg_library@@QEBA?AU12@HHHHHIMMMM@Z@4HA 000000018002c3bb f   resize_worker.obj
 0001:0002b3e9       ?dtor$72@?0??get_resize@?$CImg@E@cimg_library@@QEBA?AU12@HHHHHIMMMM@Z@4HA 000000018002c3e9 f   resize_worker.obj
 0001:0002b417       ?dtor$73@?0??get_resize@?$CImg@E@cimg_library@@QEBA?AU12@HHHHHIMMMM@Z@4HA 000000018002c417 f   resize_worker.obj
 0001:0002b445       ?dtor$74@?0??get_resize@?$CImg@E@cimg_library@@QEBA?AU12@HHHHHIMMMM@Z@4HA 000000018002c445 f   resize_worker.obj
 0001:0002b473       ?dtor$75@?0??get_resize@?$CImg@E@cimg_library@@QEBA?AU12@HHHHHIMMMM@Z@4HA 000000018002c473 f   resize_worker.obj
 0001:0002b4a1       ?dtor$76@?0??get_resize@?$CImg@E@cimg_library@@QEBA?AU12@HHHHHIMMMM@Z@4HA 000000018002c4a1 f   resize_worker.obj
 0001:0002b4cf       ?dtor$77@?0??get_resize@?$CImg@E@cimg_library@@QEBA?AU12@HHHHHIMMMM@Z@4HA 000000018002c4cf f   resize_worker.obj
 0001:0002b4fd       ?dtor$78@?0??get_resize@?$CImg@E@cimg_library@@QEBA?AU12@HHHHHIMMMM@Z@4HA 000000018002c4fd f   resize_worker.obj
 0001:0002b52b       ?dtor$79@?0??get_resize@?$CImg@E@cimg_library@@QEBA?AU12@HHHHHIMMMM@Z@4HA 000000018002c52b f   resize_worker.obj
 0001:0002b537       ?dtor$80@?0??get_resize@?$CImg@E@cimg_library@@QEBA?AU12@HHHHHIMMMM@Z@4HA 000000018002c537 f   resize_worker.obj
 0001:0002b543       ?dtor$81@?0??get_resize@?$CImg@E@cimg_library@@QEBA?AU12@HHHHHIMMMM@Z@4HA 000000018002c543 f   resize_worker.obj
 0001:0002b54f       ?dtor$82@?0??get_resize@?$CImg@E@cimg_library@@QEBA?AU12@HHHHHIMMMM@Z@4HA 000000018002c54f f   resize_worker.obj
 0001:0002b55b       ?dtor$83@?0??get_resize@?$CImg@E@cimg_library@@QEBA?AU12@HHHHHIMMMM@Z@4HA 000000018002c55b f   resize_worker.obj
 0001:0002b567       ?dtor$84@?0??get_resize@?$CImg@E@cimg_library@@QEBA?AU12@HHHHHIMMMM@Z@4HA 000000018002c567 f   resize_worker.obj
 0001:0002b573       ?dtor$85@?0??get_resize@?$CImg@E@cimg_library@@QEBA?AU12@HHHHHIMMMM@Z@4HA 000000018002c573 f   resize_worker.obj
 0001:0002b57f       ?dtor$86@?0??get_resize@?$CImg@E@cimg_library@@QEBA?AU12@HHHHHIMMMM@Z@4HA 000000018002c57f f   resize_worker.obj
 0001:0002b58b       ?dtor$87@?0??get_resize@?$CImg@E@cimg_library@@QEBA?AU12@HHHHHIMMMM@Z@4HA 000000018002c58b f   resize_worker.obj
 0001:0002b597       ?dtor$88@?0??get_resize@?$CImg@E@cimg_library@@QEBA?AU12@HHHHHIMMMM@Z@4HA 000000018002c597 f   resize_worker.obj
 0001:0002b5a3       ?dtor$89@?0??get_resize@?$CImg@E@cimg_library@@QEBA?AU12@HHHHHIMMMM@Z@4HA 000000018002c5a3 f   resize_worker.obj
 0001:0002b5af       ?dtor$90@?0??get_resize@?$CImg@E@cimg_library@@QEBA?AU12@HHHHHIMMMM@Z@4HA 000000018002c5af f   resize_worker.obj
 0001:0002b5bb       ?dtor$91@?0??get_resize@?$CImg@E@cimg_library@@QEBA?AU12@HHHHHIMMMM@Z@4HA 000000018002c5bb f   resize_worker.obj
 0001:0002b5c7       ?dtor$92@?0??get_resize@?$CImg@E@cimg_library@@QEBA?AU12@HHHHHIMMMM@Z@4HA 000000018002c5c7 f   resize_worker.obj
 0001:0002b5d3       ?dtor$93@?0??get_resize@?$CImg@E@cimg_library@@QEBA?AU12@HHHHHIMMMM@Z@4HA 000000018002c5d3 f   resize_worker.obj
 0001:0002b601       ?dtor$94@?0??get_resize@?$CImg@E@cimg_library@@QEBA?AU12@HHHHHIMMMM@Z@4HA 000000018002c601 f   resize_worker.obj
 0001:0002b62f       ?dtor$95@?0??get_resize@?$CImg@E@cimg_library@@QEBA?AU12@HHHHHIMMMM@Z@4HA 000000018002c62f f   resize_worker.obj
 0001:0002b65d       ?dtor$96@?0??get_resize@?$CImg@E@cimg_library@@QEBA?AU12@HHHHHIMMMM@Z@4HA 000000018002c65d f   resize_worker.obj
 0001:0002b68b       ?dtor$97@?0??get_resize@?$CImg@E@cimg_library@@QEBA?AU12@HHHHHIMMMM@Z@4HA 000000018002c68b f   resize_worker.obj
 0001:0002b6b9       ?dtor$98@?0??get_resize@?$CImg@E@cimg_library@@QEBA?AU12@HHHHHIMMMM@Z@4HA 000000018002c6b9 f   resize_worker.obj
 0001:0002b6e7       ?dtor$99@?0??get_resize@?$CImg@E@cimg_library@@QEBA?AU12@HHHHHIMMMM@Z@4HA 000000018002c6e7 f   resize_worker.obj
 0001:0002b715       ?dtor$100@?0??get_resize@?$CImg@E@cimg_library@@QEBA?AU12@HHHHHIMMMM@Z@4HA 000000018002c715 f   resize_worker.obj
 0001:0002b750       ?catch$0@?0???0?$CImg@M@cimg_library@@QEAA@IIII@Z@4HA 000000018002c750 f   resize_worker.obj
 0001:0002b764       __catch$??0?$CImg@M@cimg_library@@QEAA@IIII@Z$0 000000018002c764 f   resize_worker.obj
 0001:0002b830       ?catch$0@?0???0?$CImg@M@cimg_library@@QEAA@IIIIAEBM@Z@4HA 000000018002c830 f   resize_worker.obj
 0001:0002b844       __catch$??0?$CImg@M@cimg_library@@QEAA@IIIIAEBM@Z$0 000000018002c844 f   resize_worker.obj
 0001:0002b910       ?catch$0@?0???0?$CImg@E@cimg_library@@QEAA@IIIIAEBE@Z@4HA 000000018002c910 f   resize_worker.obj
 0001:0002b924       __catch$??0?$CImg@E@cimg_library@@QEAA@IIIIAEBE@Z$0 000000018002c924 f   resize_worker.obj
 0001:0002b9f0       ?catch$0@?0??assign@?$CImg@E@cimg_library@@QEAAAEAU12@IIII@Z@4HA 000000018002c9f0 f   resize_worker.obj
 0001:0002ba04       __catch$?assign@?$CImg@E@cimg_library@@QEAAAEAU12@IIII@Z$0 000000018002ca04 f   resize_worker.obj
 0001:0002bae0       ?dtor$0@?0??get_crop@?$CImg@E@cimg_library@@QEBA?AU12@HHHHHHHH_N@Z@4HA 000000018002cae0 f   resize_worker.obj
 0001:0002bb10       ?dtor$0@?0??draw_image@?$CImg@E@cimg_library@@QEAAAEAU12@HHHHAEBU12@M@Z@4HA 000000018002cb10 f   resize_worker.obj
 0001:0002bb20       ?catch$0@?0???0?$CImg@I@cimg_library@@QEAA@IIII@Z@4HA 000000018002cb20 f   resize_worker.obj
 0001:0002bb2f       __catch$??0?$CImg@I@cimg_library@@QEAA@IIII@Z$0 000000018002cb2f f   resize_worker.obj
 0001:0002bbf0       ?catch$0@?0???0?$CImg@E@cimg_library@@QEAA@AEBU01@_N@Z@4HA 000000018002cbf0 f   resize_worker.obj
 0001:0002bc04       __catch$??0?$CImg@E@cimg_library@@QEAA@AEBU01@_N@Z$0 000000018002cc04 f   resize_worker.obj
 0001:0002bcd0       ?catch$0@?0??assign@?$CImg@E@cimg_library@@QEAAAEAU12@QEBEIIII@Z@4HA 000000018002ccd0 f   resize_worker.obj
 0001:0002bce4       __catch$?assign@?$CImg@E@cimg_library@@QEAAAEAU12@QEBEIIII@Z$0 000000018002cce4 f   resize_worker.obj
 0001:0002bdb0       ?dtor$0@?0??Execute@RotateWorker@@UEAAXXZ@4HA 000000018002cdb0 f   rotate_worker.obj
 0001:0002bdbc       ?catch$1@?0??Execute@RotateWorker@@UEAAXXZ@4HA 000000018002cdbc f   rotate_worker.obj
 0001:0002bdc9       __catch$?Execute@RotateWorker@@UEAAXXZ$0 000000018002cdc9 f   rotate_worker.obj
 0001:0002bdf5       ?dtor$1@?0??Execute@RotateWorker@@UEAAXXZ@4HA 000000018002cdf5 f   rotate_worker.obj
 0001:0002be01       ?dtor$3@?0??Execute@RotateWorker@@UEAAXXZ@4HA 000000018002ce01 f   rotate_worker.obj
 0001:0002be0d       ?catch$0@?0??Execute@RotateWorker@@UEAAXXZ@4HA 000000018002ce0d f   rotate_worker.obj
 0001:0002be1a       __catch$?Execute@RotateWorker@@UEAAXXZ$2 000000018002ce1a f   rotate_worker.obj
 0001:0002be46       ?dtor$2@?0??Execute@RotateWorker@@UEAAXXZ@4HA 000000018002ce46 f   rotate_worker.obj
 0001:0002be60       ?dtor$0@?0??get_rotate@?$CImg@E@cimg_library@@QEBA?AU12@MII@Z@4HA 000000018002ce60 f   rotate_worker.obj
 0001:0002be89       ?dtor$1@?0??get_rotate@?$CImg@E@cimg_library@@QEBA?AU12@MII@Z@4HA 000000018002ce89 f   rotate_worker.obj
 0001:0002bea0       ?catch$0@?0??Execute@CropWorker@@UEAAXXZ@4HA 000000018002cea0 f   crop_worker.obj
 0001:0002bead       __catch$?Execute@CropWorker@@UEAAXXZ$0 000000018002cead f   crop_worker.obj
 0001:0002bed9       ?dtor$0@?0??Execute@CropWorker@@UEAAXXZ@4HA 000000018002ced9 f   crop_worker.obj
 0001:0002bef0       ?dtor$0@?0??Execute@MirrorWorker@@UEAAXXZ@4HA 000000018002cef0 f   mirror_worker.obj
 0001:0002befc       ?catch$0@?0??Execute@MirrorWorker@@UEAAXXZ@4HA 000000018002cefc f   mirror_worker.obj
 0001:0002bf09       __catch$?Execute@MirrorWorker@@UEAAXXZ$0 000000018002cf09 f   mirror_worker.obj
 0001:0002bf32       ?dtor$1@?0??Execute@MirrorWorker@@UEAAXXZ@4HA 000000018002cf32 f   mirror_worker.obj
 0001:0002bf40       ?dtor$0@?0??Execute@PadWorker@@UEAAXXZ@4HA 000000018002cf40 f   pad_worker.obj
 0001:0002bf4c       ?catch$0@?0??Execute@PadWorker@@UEAAXXZ@4HA 000000018002cf4c f   pad_worker.obj
 0001:0002bf59       __catch$?Execute@PadWorker@@UEAAXXZ$0 000000018002cf59 f   pad_worker.obj
 0001:0002bf85       ?dtor$1@?0??Execute@PadWorker@@UEAAXXZ@4HA 000000018002cf85 f   pad_worker.obj
 0001:0002bfa0       ?catch$0@?0??Execute@SharpenWorker@@UEAAXXZ@4HA 000000018002cfa0 f   sharpen_worker.obj
 0001:0002bfad       __catch$?Execute@SharpenWorker@@UEAAXXZ$0 000000018002cfad f   sharpen_worker.obj
 0001:0002bfd6       ?dtor$0@?0??Execute@SharpenWorker@@UEAAXXZ@4HA 000000018002cfd6 f   sharpen_worker.obj
 0001:0002bff0       ?dtor$0@?0??sharpen@?$CImg@E@cimg_library@@QEAAAEAU12@M_NMMM@Z@4HA 000000018002cff0 f   sharpen_worker.obj
 0001:0002bffc       ?dtor$1@?0??sharpen@?$CImg@E@cimg_library@@QEAAAEAU12@M_NMMM@Z@4HA 000000018002cffc f   sharpen_worker.obj
 0001:0002c010       ?dtor$0@?0???$?YE@?$CImg@M@cimg_library@@QEAAAEAU01@AEBU?$CImg@E@1@@Z@4HA 000000018002d010 f   sharpen_worker.obj
 0001:0002c020       ?dtor$0@?0???0PasteWorker@@QEAA@_K0AEAV?$Local@VObject@v8@@@v8@@00PEAU?$CImg@E@cimg_library@@PEAVCallback@Nan@@@Z@4HA 000000018002d020 f   paste_worker.obj
 0001:0002c02c       ?dtor$1@?0???0PasteWorker@@QEAA@_K0AEAV?$Local@VObject@v8@@@v8@@00PEAU?$CImg@E@cimg_library@@PEAVCallback@Nan@@@Z@4HA 000000018002d02c f   paste_worker.obj
 0001:0002c040       ?catch$0@?0??Execute@PasteWorker@@UEAAXXZ@4HA 000000018002d040 f   paste_worker.obj
 0001:0002c04d       __catch$?Execute@PasteWorker@@UEAAXXZ$0 000000018002d04d f   paste_worker.obj
 0001:0002c079       ?dtor$1@?0??Execute@PasteWorker@@UEAAXXZ@4HA 000000018002d079 f   paste_worker.obj
 0001:0002c085       _onexit$fin$0              000000018002d085 f   LIBCMT:onexit.obj
 0001:0002c099       _fsopen$fin$0              000000018002d099 f   LIBCMT:fopen.obj
 0001:0002c099       fwprintf$fin$0             000000018002d099 f   LIBCMT:fopen.obj
 0001:0002c0b3       fprintf$fin$0              000000018002d0b3 f   LIBCMT:fprintf.obj
 0001:0002c0cd       getenv$fin$0               000000018002d0cd f   LIBCMT:getenv.obj
 0001:0002c0e6       _CRT_INIT$fin$0            000000018002d0e6 f   LIBCMT:dllcrt0.obj
 0001:0002c10c       __DllMainCRTStartup$filt$0 000000018002d10c f   LIBCMT:dllcrt0.obj
 0001:0002c155       _CallSETranslator$filt$0   000000018002d155 f   LIBCMT:trnsctrl.obj
 0001:0002c19b       doexit$fin$0               000000018002d19b f   LIBCMT:crt0dat.obj
 0001:0002c1bf       _ctrlfp$filt$0             000000018002d1bf f   LIBCMT:fpctrl.obj
 0001:0002c1eb       _getstream$fin$0           000000018002d1eb f   LIBCMT:closeall.obj
 0001:0002c1eb       _fcloseall$fin$0           000000018002d1eb f   LIBCMT:closeall.obj
 0001:0002c204       fclose$fin$0               000000018002d204 f   LIBCMT:fflush.obj
 0001:0002c204       fflush$fin$0               000000018002d204 f   LIBCMT:fflush.obj
 0001:0002c21c       flsall$fin$0               000000018002d21c f   LIBCMT:fflush.obj
 0001:0002c244       flsall$fin$1               000000018002d244 f   LIBCMT:fflush.obj
 0001:0002c25d       _mtinitlocknum$fin$0       000000018002d25d f   LIBCMT:mlock.obj
 0001:0002c27a       setvbuf$fin$0              000000018002d27a f   LIBCMT:setvbuf.obj
 0001:0002c292       raise$fin$0                000000018002d292 f   LIBCMT:winsig.obj
 0001:0002c2b0       _ioinit$fin$0              000000018002d2b0 f   LIBCMT:ioinit.obj
 0001:0002c2cb       _freefls$fin$1             000000018002d2cb f   LIBCMT:tidtable.obj
 0001:0002c2cb       _initptd$fin$1             000000018002d2cb f   LIBCMT:tidtable.obj
 0001:0002c2e4       _initptd$fin$0             000000018002d2e4 f   LIBCMT:tidtable.obj
 0001:0002c2e4       _freefls$fin$0             000000018002d2e4 f   LIBCMT:tidtable.obj
 0001:0002c2fd       ?fin$0@?0??_Type_info_dtor@type_info@@CAXPEAV1@@Z@4HA 000000018002d2fd f   LIBCMT:typname.obj
 0001:0002c316       _close$fin$0               000000018002d316 f   LIBCMT:close.obj
 0001:0002c316       _commit$fin$0              000000018002d316 f   LIBCMT:close.obj
 0001:0002c32d       __updatetlocinfo$fin$0     000000018002d32d f   LIBCMT:localref.obj
 0001:0002c32d       _locterm$fin$0             000000018002d32d f   LIBCMT:localref.obj
 0001:0002c346       _setmbcp$fin$0             000000018002d346 f   LIBCMT:mbctype.obj
 0001:0002c346       __updatetmbcinfo$fin$0     000000018002d346 f   LIBCMT:mbctype.obj
 0001:0002c35f       __CxxCallCatchBlock$filt$0 000000018002d35f f   LIBCMT:frame.obj
 0001:0002c453       __CxxCallCatchBlock$fin$1  000000018002d453 f   LIBCMT:frame.obj
 0001:0002c4d1       __DestructExceptionObject$filt$0 000000018002d4d1 f   LIBCMT:frame.obj
 0001:0002c4e9       __FrameUnwindToState$filt$0 000000018002d4e9 f   LIBCMT:frame.obj
 0001:0002c4ff       __FrameUnwindToState$fin$1 000000018002d4ff f   LIBCMT:frame.obj
 0001:0002c530       _IsNonwritableInCurrentImage$filt$0 000000018002d530 f   LIBCMT:pesect.obj
 0001:0002c550       _write$fin$0               000000018002d550 f   LIBCMT:write.obj
 0001:0002c550       _lseeki64$fin$0            000000018002d550 f   LIBCMT:write.obj
 0001:0002c567       _sopen_helper$fin$0        000000018002d567 f   LIBCMT:open.obj
 0001:0002c5ba       __lock_fhandle$fin$0       000000018002d5ba f   LIBCMT:osfinfo.obj
 0001:0002c5d3       _alloc_osfhnd$fin$0        000000018002d5d3 f   LIBCMT:osfinfo.obj
 0001:0002c5ee       _alloc_osfhnd$fin$1        000000018002d5ee f   LIBCMT:osfinfo.obj
 0001:0002c6d0       ??__F?constructor@LwipImage@@0V?$Persistent@VFunctionTemplate@v8@@V?$NonCopyablePersistentTraits@VFunctionTemplate@v8@@@2@@Nan@@A@@YAXXZ 000000018002d6d0 f   image.obj
 0002:000002a0       piecewise_construct$initializer$ 000000018002e2a0     init.obj
 0002:000002a8       allocator_arg$initializer$ 000000018002e2a8     init.obj
 0002:000002b0       piecewise_construct$initializer$ 000000018002e2b0     image.obj
 0002:000002b8       allocator_arg$initializer$ 000000018002e2b8     image.obj
 0002:000002c0       ?constructor$initializer$@LwipImage@@0P6AXXZEA 000000018002e2c0     image.obj
 0002:000002c8       piecewise_construct$initializer$ 000000018002e2c8     resize_worker.obj
 0002:000002d0       allocator_arg$initializer$ 000000018002e2d0     resize_worker.obj
 0002:000002d8       piecewise_construct$initializer$ 000000018002e2d8     rotate_worker.obj
 0002:000002e0       allocator_arg$initializer$ 000000018002e2e0     rotate_worker.obj
 0002:000002e8       piecewise_construct$initializer$ 000000018002e2e8     blur_worker.obj
 0002:000002f0       allocator_arg$initializer$ 000000018002e2f0     blur_worker.obj
 0002:000002f8       piecewise_construct$initializer$ 000000018002e2f8     crop_worker.obj
 0002:00000300       allocator_arg$initializer$ 000000018002e300     crop_worker.obj
 0002:00000308       piecewise_construct$initializer$ 000000018002e308     mirror_worker.obj
 0002:00000310       allocator_arg$initializer$ 000000018002e310     mirror_worker.obj
 0002:00000318       piecewise_construct$initializer$ 000000018002e318     pad_worker.obj
 0002:00000320       allocator_arg$initializer$ 000000018002e320     pad_worker.obj
 0002:00000328       piecewise_construct$initializer$ 000000018002e328     sharpen_worker.obj
 0002:00000330       allocator_arg$initializer$ 000000018002e330     sharpen_worker.obj
 0002:00000338       piecewise_construct$initializer$ 000000018002e338     hsla_worker.obj
 0002:00000340       allocator_arg$initializer$ 000000018002e340     hsla_worker.obj
 0002:00000348       piecewise_construct$initializer$ 000000018002e348     opacify_worker.obj
 0002:00000350       allocator_arg$initializer$ 000000018002e350     opacify_worker.obj
 0002:00000358       piecewise_construct$initializer$ 000000018002e358     paste_worker.obj
 0002:00000360       allocator_arg$initializer$ 000000018002e360     paste_worker.obj
 0002:00000368       piecewise_construct$initializer$ 000000018002e368     setpixel_worker.obj
 0002:00000370       allocator_arg$initializer$ 000000018002e370     setpixel_worker.obj
 0002:00000390       pinit                      000000018002e390     LIBCMT:onexit.obj
 0002:00000398       pinit                      000000018002e398     LIBCMT:_file.obj
 0002:000003a0       pinit                      000000018002e3a0     LIBCMT:cpu_disp.obj
 0002:000003a8       pinit                      000000018002e3a8     LIBCMT:mbctype.obj
 0002:000003b0       init_fma3                  000000018002e3b0     LIBCMT:fma3_available.obj
 0002:000003c8       pterm                      000000018002e3c8     LIBCMT:wsetloca.obj
 0002:000003d0       pterm                      000000018002e3d0     LIBCMT:initcon.obj
 0002:000003d8       pterm                      000000018002e3d8     LIBCMT:_file.obj
 0002:00000450       _Win_errtab                000000018002e450     libcpmt:syserror.obj
 0002:00000900       _Sys_errtab                000000018002e900     libcpmt:syserror.obj
 0002:00001a50       ?ExceptionTemplate@?1??_CxxThrowException@@9@4UEHExceptionRecord@@B 000000018002fa50     LIBCMT:throw.obj
 0002:00001a90       ?ExceptionTemplate@?1??_UnwindNestedFrames@@9@4U_EXCEPTION_RECORD@@B 000000018002fa90     LIBCMT:trnsctrl.obj
 0002:00001b60       GS_ExceptionPointers       000000018002fb60     LIBCMT:gs_report.obj
 0002:00001d00       rterrs                     000000018002fd00     LIBCMT:crt0msg.obj
 0002:000027d8       ?ccsField@?P@??_openfile@@9@9 00000001800307d8     LIBCMT:_open.obj
 0002:000027dc       ?utf8encoding@?P@??_openfile@@9@9 00000001800307dc     LIBCMT:_open.obj
 0002:000027e8       ?utf16encoding@?P@??_openfile@@9@9 00000001800307e8     LIBCMT:_open.obj
 0002:000027f8       ?unicodeencoding@?P@??_openfile@@9@9 00000001800307f8     LIBCMT:_open.obj
 0002:00002800       _mb_locale_names           0000000180030800     LIBCMT:mbctype.obj
 0002:00002c20       _first_127char             0000000180030c20     LIBCMT:wsetloca.obj
 0002:000063e0       __real@433fffffffffffff    00000001800343e0     LIBCMT:fpsr.obj
 0002:000063e8       __real@c33fffffffffffff    00000001800343e8     LIBCMT:fpsr.obj
 0002:000064c0       tokenTable                 00000001800344c0     LIBCMT:undname.obj
 0002:00006530       nameTable                  0000000180034530     LIBCMT:undname.obj
 0002:000067b0       rttiTable                  00000001800347b0     LIBCMT:undname.obj
 0002:000076d0       logo40x38                  00000001800356d0     init.obj
 0002:000088b0       t_normal                   00000001800368b0     init.obj
 0002:000088b1       t_normal                   00000001800368b1     image.obj
 0002:000088b2       t_normal                   00000001800368b2     resize_worker.obj
 0002:000088b3       t_normal                   00000001800368b3     rotate_worker.obj
 0002:000088b4       t_normal                   00000001800368b4     blur_worker.obj
 0002:000088b5       t_normal                   00000001800368b5     crop_worker.obj
 0002:000088b6       t_normal                   00000001800368b6     mirror_worker.obj
 0002:000088b7       t_normal                   00000001800368b7     pad_worker.obj
 0002:000088b8       t_green                    00000001800368b8     image.obj
 0002:000088c0       logo40x38                  00000001800368c0     image.obj
 0002:00009aa0       t_red                      0000000180037aa0     image.obj
 0002:00009aa8       t_bold                     0000000180037aa8     image.obj
 0002:00009ab0       logo40x38                  0000000180037ab0     resize_worker.obj
 0002:0000ac90       t_green                    0000000180038c90     resize_worker.obj
 0002:0000ac98       t_red                      0000000180038c98     resize_worker.obj
 0002:0000aca0       t_bold                     0000000180038ca0     resize_worker.obj
 0002:0000aca8       PI                         0000000180038ca8     resize_worker.obj
 0002:0000acb0       logo40x38                  0000000180038cb0     rotate_worker.obj
 0002:0000be90       t_green                    0000000180039e90     rotate_worker.obj
 0002:0000be98       t_red                      0000000180039e98     rotate_worker.obj
 0002:0000bea0       t_bold                     0000000180039ea0     rotate_worker.obj
 0002:0000bea8       PI                         0000000180039ea8     rotate_worker.obj
 0002:0000beb0       logo40x38                  0000000180039eb0     blur_worker.obj
 0002:0000d090       logo40x38                  000000018003b090     crop_worker.obj
 0002:0000e270       t_green                    000000018003c270     crop_worker.obj
 0002:0000e278       t_red                      000000018003c278     crop_worker.obj
 0002:0000e280       t_bold                     000000018003c280     crop_worker.obj
 0002:0000e288       t_green                    000000018003c288     mirror_worker.obj
 0002:0000e290       logo40x38                  000000018003c290     mirror_worker.obj
 0002:0000f470       t_red                      000000018003d470     mirror_worker.obj
 0002:0000f478       t_bold                     000000018003d478     mirror_worker.obj
 0002:0000f480       logo40x38                  000000018003d480     pad_worker.obj
 0002:00010660       t_red                      000000018003e660     pad_worker.obj
 0002:00010668       t_green                    000000018003e668     pad_worker.obj
 0002:00010670       t_bold                     000000018003e670     pad_worker.obj
 0002:00010678       t_red                      000000018003e678     sharpen_worker.obj
 0002:00010680       logo40x38                  000000018003e680     sharpen_worker.obj
 0002:00011860       t_green                    000000018003f860     sharpen_worker.obj
 0002:00011868       t_bold                     000000018003f868     sharpen_worker.obj
 0002:00011870       t_normal                   000000018003f870     sharpen_worker.obj
 0002:00011871       t_normal                   000000018003f871     hsla_worker.obj
 0002:00011872       t_normal                   000000018003f872     opacify_worker.obj
 0002:00011873       t_normal                   000000018003f873     paste_worker.obj
 0002:00011874       t_normal                   000000018003f874     setpixel_worker.obj
 0002:00011880       logo40x38                  000000018003f880     hsla_worker.obj
 0002:00012a60       logo40x38                  0000000180040a60     opacify_worker.obj
 0002:00013c40       logo40x38                  0000000180041c40     paste_worker.obj
 0002:00014e20       t_red                      0000000180042e20     paste_worker.obj
 0002:00014e28       t_green                    0000000180042e28     paste_worker.obj
 0002:00014e30       t_bold                     0000000180042e30     paste_worker.obj
 0002:00014e40       logo40x38                  0000000180042e40     setpixel_worker.obj
 0002:00017a80       $cppxdata$??0?$CImg@E@cimg_library@@QEAA@AEBU01@@Z 0000000180045a80     image.obj
 0002:00017aa8       $cppxdata$??0?$CImg@E@cimg_library@@QEAA@IIII@Z 0000000180045aa8     image.obj
 0002:00017ad0       $cppxdata$??0?$CImg@E@cimg_library@@QEAA@QEBEIIII_N@Z 0000000180045ad0     image.obj
 0002:00017af8       $cppxdata$?assign@?$CImg@D@cimg_library@@QEAAAEAU12@IIII@Z 0000000180045af8     image.obj
 0002:00017b20       $cppxdata$??0?$CImg@D@cimg_library@@QEAA@IIII@Z 0000000180045b20     image.obj
 0002:00017b48       $cppxdata$?setPixel@LwipImage@@SAXAEBV?$FunctionCallbackInfo@VValue@v8@@@Nan@@@Z 0000000180045b48     image.obj
 0002:00017b70       $cppxdata$?paste@LwipImage@@SAXAEBV?$FunctionCallbackInfo@VValue@v8@@@Nan@@@Z 0000000180045b70     image.obj
 0002:00017b98       $cppxdata$?opacify@LwipImage@@SAXAEBV?$FunctionCallbackInfo@VValue@v8@@@Nan@@@Z 0000000180045b98     image.obj
 0002:00017bc0       $cppxdata$?hslaAdj@LwipImage@@SAXAEBV?$FunctionCallbackInfo@VValue@v8@@@Nan@@@Z 0000000180045bc0     image.obj
 0002:00017be8       $cppxdata$?sharpen@LwipImage@@SAXAEBV?$FunctionCallbackInfo@VValue@v8@@@Nan@@@Z 0000000180045be8     image.obj
 0002:00017c10       $cppxdata$?pad@LwipImage@@SAXAEBV?$FunctionCallbackInfo@VValue@v8@@@Nan@@@Z 0000000180045c10     image.obj
 0002:00017c38       $cppxdata$?mirror@LwipImage@@SAXAEBV?$FunctionCallbackInfo@VValue@v8@@@Nan@@@Z 0000000180045c38     image.obj
 0002:00017c60       $cppxdata$?crop@LwipImage@@SAXAEBV?$FunctionCallbackInfo@VValue@v8@@@Nan@@@Z 0000000180045c60     image.obj
 0002:00017c88       $cppxdata$?blur@LwipImage@@SAXAEBV?$FunctionCallbackInfo@VValue@v8@@@Nan@@@Z 0000000180045c88     image.obj
 0002:00017cb0       $cppxdata$?rotate@LwipImage@@SAXAEBV?$FunctionCallbackInfo@VValue@v8@@@Nan@@@Z 0000000180045cb0     image.obj
 0002:00017cd8       $cppxdata$?resize@LwipImage@@SAXAEBV?$FunctionCallbackInfo@VValue@v8@@@Nan@@@Z 0000000180045cd8     image.obj
 0002:00017d00       $cppxdata$?New@LwipImage@@SAXAEBV?$FunctionCallbackInfo@VValue@v8@@@Nan@@@Z 0000000180045d00     image.obj
 0002:00017d28       $cppxdata$??_GLwipImage@@UEAAPEAXI@Z 0000000180045d28     image.obj
 0002:00017d50       $cppxdata$??0LwipImage@@QEAA@PEAE_K1@Z 0000000180045d50     image.obj
 0002:00017d78       $cppxdata$?strbuffersize@cimg@cimg_library@@YAPEBDK@Z 0000000180045d78     image.obj
 0002:00017da0       $cppxdata$?temporary_path@cimg@cimg_library@@YAPEBDQEBD_N@Z 0000000180045da0     image.obj
 0002:00017dc8       $cppxdata$??0CImgArgumentException@cimg_library@@QEAA@AEBU01@@Z 0000000180045dc8     image.obj
 0002:00017dc8       $cppxdata$??0CImgInstanceException@cimg_library@@QEAA@AEBU01@@Z 0000000180045dc8     image.obj
 0002:00017dc8       $cppxdata$??0CImgIOException@cimg_library@@QEAA@AEBU01@@Z 0000000180045dc8     image.obj
 0002:00017df0       $cppxdata$??0CImgIOException@cimg_library@@QEAA@QEBDZZ 0000000180045df0     image.obj
 0002:00017e18       $cppxdata$??0CImgInstanceException@cimg_library@@QEAA@QEBDZZ 0000000180045e18     image.obj
 0002:00017e40       $cppxdata$??0CImgArgumentException@cimg_library@@QEAA@QEBDZZ 0000000180045e40     image.obj
 0002:00017e68       $cppxdata$??0CImgException@cimg_library@@QEAA@AEBU01@@Z 0000000180045e68     image.obj
 0002:00017e90       $cppxdata$??0Callback@Nan@@QEAA@AEBV?$Local@VFunction@v8@@@v8@@@Z 0000000180045e90     image.obj
 0002:00017eb8       $cppxdata$?New@?$Factory@VFunctionTemplate@v8@@@imp@Nan@@SA?AV?$Local@VFunctionTemplate@v8@@@v8@@P6AXAEBV?$FunctionCallbackInfo@VValue@v8@@@3@@ZV?$Local@VValue@v8@@@5@V?$Local@VSignature@v8@@@5@@Z 0000000180045eb8     image.obj
 0002:00017ee0       $cppxdata$?WeakCallback@ObjectWrap@node@@CAXAEBV?$WeakCallbackData@VObject@v8@@VObjectWrap@node@@@v8@@@Z 0000000180045ee0     image.obj
 0002:00017f08       $cppxdata$??1ObjectWrap@node@@UEAA@XZ 0000000180045f08     image.obj
 0002:00017f30       $cppxdata$?Init@LwipImage@@SAXV?$Local@VObject@v8@@@v8@@@Z 0000000180045f30     image.obj
 0002:00017f58       $cppxdata$?assign@?$CImg@E@cimg_library@@QEAAAEAU12@QEBEIIII@Z 0000000180045f58     resize_worker.obj
 0002:00017f80       $cppxdata$??0?$CImg@E@cimg_library@@QEAA@AEBU01@_N@Z 0000000180045f80     resize_worker.obj
 0002:00017fa8       $cppxdata$??0?$CImg@I@cimg_library@@QEAA@IIII@Z 0000000180045fa8     resize_worker.obj
 0002:00017fd0       $cppxdata$?draw_image@?$CImg@E@cimg_library@@QEAAAEAU12@HHHHAEBU12@M@Z 0000000180045fd0     resize_worker.obj
 0002:00017ff8       $cppxdata$?get_crop@?$CImg@E@cimg_library@@QEBA?AU12@HHHHHHHH_N@Z 0000000180045ff8     resize_worker.obj
 0002:00018020       $cppxdata$?assign@?$CImg@E@cimg_library@@QEAAAEAU12@IIII@Z 0000000180046020     resize_worker.obj
 0002:00018048       $cppxdata$??0?$CImg@E@cimg_library@@QEAA@IIIIAEBE@Z 0000000180046048     resize_worker.obj
 0002:00018070       $cppxdata$??0?$CImg@M@cimg_library@@QEAA@IIIIAEBM@Z 0000000180046070     resize_worker.obj
 0002:00018098       $cppxdata$??0?$CImg@M@cimg_library@@QEAA@IIII@Z 0000000180046098     resize_worker.obj
 0002:000180c0       $cppxdata$?get_resize@?$CImg@E@cimg_library@@QEBA?AU12@HHHHHIMMMM@Z 00000001800460c0     resize_worker.obj
 0002:000180e8       $cppxdata$?resize@?$CImg@E@cimg_library@@QEAAAEAU12@HHHHHIMMMM@Z 00000001800460e8     resize_worker.obj
 0002:00018110       $cppxdata$??0?$CImg@K@cimg_library@@QEAA@IIII@Z 0000000180046110     resize_worker.obj
 0002:00018138       $cppxdata$?Execute@ResizeWorker@@UEAAXXZ 0000000180046138     resize_worker.obj
 0002:00018160       $cppxdata$?HandleErrorCallback@AsyncWorker@Nan@@MEAAXXZ 0000000180046160     resize_worker.obj
 0002:00018188       $cppxdata$?WorkComplete@AsyncWorker@Nan@@UEAAXXZ 0000000180046188     resize_worker.obj
 0002:000181b0       $cppxdata$??1AsyncWorker@Nan@@UEAA@XZ 00000001800461b0     resize_worker.obj
 0002:000181d8       $cppxdata$??0AsyncWorker@Nan@@QEAA@PEAVCallback@1@@Z 00000001800461d8     resize_worker.obj
 0002:00018200       $cppxdata$?Call_@Callback@Nan@@AEBA?AV?$Local@VValue@v8@@@v8@@PEAVIsolate@4@V?$Local@VObject@v8@@@4@HQEAV34@@Z 0000000180046200     resize_worker.obj
 0002:00018228       $cppxdata$?get_rotate@?$CImg@E@cimg_library@@QEBA?AU12@MII@Z 0000000180046228     rotate_worker.obj
 0002:00018250       $cppxdata$?Execute@RotateWorker@@UEAAXXZ 0000000180046250     rotate_worker.obj
 0002:00018278       $cppxdata$?crop@?$CImg@E@cimg_library@@QEAAAEAU12@HHHHHHHH_N@Z 0000000180046278     crop_worker.obj
 0002:000182a0       $cppxdata$?Execute@CropWorker@@UEAAXXZ 00000001800462a0     crop_worker.obj
 0002:000182c8       $cppxdata$?Execute@MirrorWorker@@UEAAXXZ 00000001800462c8     mirror_worker.obj
 0002:000182f0       $cppxdata$?Execute@PadWorker@@UEAAXXZ 00000001800462f0     pad_worker.obj
 0002:00018318       $cppxdata$??$?YE@?$CImg@M@cimg_library@@QEAAAEAU01@AEBU?$CImg@E@1@@Z 0000000180046318     sharpen_worker.obj
 0002:00018340       $cppxdata$?sharpen@?$CImg@E@cimg_library@@QEAAAEAU12@M_NMMM@Z 0000000180046340     sharpen_worker.obj
 0002:00018368       $cppxdata$?Execute@SharpenWorker@@UEAAXXZ 0000000180046368     sharpen_worker.obj
 0002:00018390       $cppxdata$?Execute@PasteWorker@@UEAAXXZ 0000000180046390     paste_worker.obj
 0002:000183b8       $cppxdata$??0PasteWorker@@QEAA@_K0AEAV?$Local@VObject@v8@@@v8@@00PEAU?$CImg@E@cimg_library@@PEAVCallback@Nan@@@Z 00000001800463b8     paste_worker.obj
 0002:000183e0       ?atan_jby256_lead@?1??atan2@@9@9 00000001800463e0     LIBCMT:atan2.obj
 0002:00018b70       ?atan_jby256_tail@?1??atan2@@9@9 0000000180046b70     LIBCMT:atan2.obj
 0002:00019300       L_real_piby2_1             0000000180047300     LIBCMT:cos.obj
 0002:00019310       L_real_piby2_1tail         0000000180047310     LIBCMT:cos.obj
 0002:00019320       L_real_piby2_2             0000000180047320     LIBCMT:cos.obj
 0002:00019330       L_real_piby2_2tail         0000000180047330     LIBCMT:cos.obj
 0002:00019340       L_one                      0000000180047340     LIBCMT:cos.obj
 0002:00019350       L_signbit                  0000000180047350     LIBCMT:cos.obj
 0002:00019360       L_int_one                  0000000180047360     LIBCMT:cos.obj
 0002:00019370       L_int_two                  0000000180047370     LIBCMT:cos.obj
 0002:00019380       L_2_by_pi                  0000000180047380     LIBCMT:cos.obj
 0002:00019388       L_one_half                 0000000180047388     LIBCMT:cos.obj
 0002:00019390       L_neg_one_half             0000000180047390     LIBCMT:cos.obj
 0002:00019398       L_two_to_neg_27            0000000180047398     LIBCMT:cos.obj
 0002:000193a0       L_two_to_neg_13            00000001800473a0     LIBCMT:cos.obj
 0002:000193a8       L_piby4                    00000001800473a8     LIBCMT:cos.obj
 0002:000193b0       L_small_arg_cw             00000001800473b0     LIBCMT:cos.obj
 0002:000193b8       L_small_arg_bdl            00000001800473b8     LIBCMT:cos.obj
 0002:000193c0       L_sign_mask                00000001800473c0     LIBCMT:cos.obj
 0002:000193c8       L__inf_mask_64             00000001800473c8     LIBCMT:cos.obj
 0002:000193d0       L_real_one                 00000001800473d0     LIBCMT:cosf.obj
 0002:000193e0       L_one_half                 00000001800473e0     LIBCMT:cosf.obj
 0002:000193f0       L_2bypi                    00000001800473f0     LIBCMT:cosf.obj
 0002:00019400       L_one_sixth                0000000180047400     LIBCMT:cosf.obj
 0002:00019410       L_piby2                    0000000180047410     LIBCMT:cosf.obj
 0002:00019420       L_piby2_1                  0000000180047420     LIBCMT:cosf.obj
 0002:00019430       L_piby2_1tail              0000000180047430     LIBCMT:cosf.obj
 0002:00019440       L_piby2_2                  0000000180047440     LIBCMT:cosf.obj
 0002:00019450       L_piby2_2tail              0000000180047450     LIBCMT:cosf.obj
 0002:00019460       L_large_x_sse2             0000000180047460     LIBCMT:cosf.obj
 0002:00019470       L_large_x_fma3             0000000180047470     LIBCMT:cosf.obj
 0002:00019480       L_sign_mask                0000000180047480     LIBCMT:cosf.obj
 0002:00019490       L__int_three               0000000180047490     LIBCMT:cosf.obj
 0002:000194a0       L__min_norm_double         00000001800474a0     LIBCMT:cosf.obj
 0002:000194b0       L_two_to_neg_7             00000001800474b0     LIBCMT:cosf.obj
 0002:000194c0       L_two_to_neg_13            00000001800474c0     LIBCMT:cosf.obj
 0002:000194d0       L_inf_mask_32              00000001800474d0     LIBCMT:cosf.obj
 0002:000194e0       __real_inf                 00000001800474e0     LIBCMT:expf.obj
 0002:000194f0       __real_ninf                00000001800474f0     LIBCMT:expf.obj
 0002:00019500       __real_qnanbit             0000000180047500     LIBCMT:expf.obj
 0002:00019510       __real_zero                0000000180047510     LIBCMT:expf.obj
 0002:00019520       __real_p8192               0000000180047520     LIBCMT:expf.obj
 0002:00019530       __real_m9600               0000000180047530     LIBCMT:expf.obj
 0002:00019540       __real_64_by_log2          0000000180047540     LIBCMT:expf.obj
 0002:00019550       __real_log2_by_64          0000000180047550     LIBCMT:expf.obj
 0002:00019560       __real_1_by_6              0000000180047560     LIBCMT:expf.obj
 0002:00019570       __real_1_by_2              0000000180047570     LIBCMT:expf.obj
 0002:00019580       __flag_x_nan               0000000180047580     LIBCMT:expf.obj
 0002:00019584       __flag_y_zero              0000000180047584     LIBCMT:expf.obj
 0002:00019588       __flag_y_inf               0000000180047588     LIBCMT:expf.obj
 0002:000195a0       L__xexp_bits_xmantissa_bits 00000001800475a0     LIBCMT:powf.obj
 0002:000195b0       L__1_by_2                  00000001800475b0     LIBCMT:powf.obj
 0002:000195c0       L__1023                    00000001800475c0     LIBCMT:powf.obj
 0002:000195c8       L__1_by_3                  00000001800475c8     LIBCMT:powf.obj
 0002:000195d0       L__log2                    00000001800475d0     LIBCMT:powf.obj
 0002:000195d8       L__max_exp_arg             00000001800475d8     LIBCMT:powf.obj
 0002:000195e0       L__min_exp_arg             00000001800475e0     LIBCMT:powf.obj
 0002:000195e8       L__real_log2_by_64         00000001800475e8     LIBCMT:powf.obj
 0002:000195f0       L__real_64_by_log2         00000001800475f0     LIBCMT:powf.obj
 0002:00019600       L__1_by_6                  0000000180047600     LIBCMT:powf.obj
 0002:00019608       L__real_threshold          0000000180047608     LIBCMT:powf.obj
 0002:00019610       L__real_one                0000000180047610     LIBCMT:powf.obj
 0002:00019618       L__real_two                0000000180047618     LIBCMT:powf.obj
 0002:00019620       L__neg_zero                0000000180047620     LIBCMT:powf.obj
 0002:00019630       L__real_ca42               0000000180047630     LIBCMT:powf.obj
 0002:00019638       L__real_ca4                0000000180047638     LIBCMT:powf.obj
 0002:00019640       L__real_ca31               0000000180047640     LIBCMT:powf.obj
 0002:00019648       L__real_ca3                0000000180047648     LIBCMT:powf.obj
 0002:00019650       L__clear_sign              0000000180047650     LIBCMT:powf.obj
 0002:00019e70       L_real_piby2_1             0000000180047e70     LIBCMT:sin.obj
 0002:00019e80       L_real_piby2_1tail         0000000180047e80     LIBCMT:sin.obj
 0002:00019e90       L_real_piby2_2             0000000180047e90     LIBCMT:sin.obj
 0002:00019ea0       L_real_piby2_2tail         0000000180047ea0     LIBCMT:sin.obj
 0002:00019eb0       L_one                      0000000180047eb0     LIBCMT:sin.obj
 0002:00019ec0       L_signbit                  0000000180047ec0     LIBCMT:sin.obj
 0002:00019ed0       L_int_one                  0000000180047ed0     LIBCMT:sin.obj
 0002:00019ee0       L_int_two                  0000000180047ee0     LIBCMT:sin.obj
 0002:00019ef0       L_int_three                0000000180047ef0     LIBCMT:sin.obj
 0002:00019f00       L_2_by_pi                  0000000180047f00     LIBCMT:sin.obj
 0002:00019f08       L_one_half                 0000000180047f08     LIBCMT:sin.obj
 0002:00019f10       L_one_sixth                0000000180047f10     LIBCMT:sin.obj
 0002:00019f18       L_two_to_neg_27            0000000180047f18     LIBCMT:sin.obj
 0002:00019f20       L_two_to_neg_13            0000000180047f20     LIBCMT:sin.obj
 0002:00019f28       L_piby4                    0000000180047f28     LIBCMT:sin.obj
 0002:00019f30       L_small_arg_cw             0000000180047f30     LIBCMT:sin.obj
 0002:00019f38       L_small_arg_bdl            0000000180047f38     LIBCMT:sin.obj
 0002:00019f40       L__inf_mask_64             0000000180047f40     LIBCMT:sin.obj
 0002:00019f50       L_signbit                  0000000180047f50     LIBCMT:sinf.obj
 0002:00019f60       L_sign_mask                0000000180047f60     LIBCMT:sinf.obj
 0002:00019f70       L_one                      0000000180047f70     LIBCMT:sinf.obj
 0002:00019f80       L_int_three                0000000180047f80     LIBCMT:sinf.obj
 0002:00019f90       L_one_half                 0000000180047f90     LIBCMT:sinf.obj
 0002:00019fa0       L_twobypi                  0000000180047fa0     LIBCMT:sinf.obj
 0002:00019fb0       L_piby2_1                  0000000180047fb0     LIBCMT:sinf.obj
 0002:00019fc0       L_one_sixth                0000000180047fc0     LIBCMT:sinf.obj
 0002:00019fd0       L_piby2_1tail              0000000180047fd0     LIBCMT:sinf.obj
 0002:00019fe0       L_piby2_2                  0000000180047fe0     LIBCMT:sinf.obj
 0002:00019ff0       L_piby2_2tail              0000000180047ff0     LIBCMT:sinf.obj
 0002:0001a000       L_inf_mask_32              0000000180048000     LIBCMT:sinf.obj
 0002:0001a010       L_int_two                  0000000180048010     LIBCMT:sinf.obj
 0002:0001a020       L_piby2_lead               0000000180048020     LIBCMT:sinf.obj
 0002:0001a030       L_piby4                    0000000180048030     LIBCMT:sinf.obj
 0002:0001a040       L_mask_3f2                 0000000180048040     LIBCMT:sinf.obj
 0002:0001a050       L_mask_3f8                 0000000180048050     LIBCMT:sinf.obj
 0002:0001a060       L_large_x_fma3             0000000180048060     LIBCMT:sinf.obj
 0002:0001a068       L_large_x_sse2             0000000180048068     LIBCMT:sinf.obj
 0002:0001a130       L__piby2_part3_piby2_lead  0000000180048130     LIBCMT:remainder_piby2_forAsm.obj
 0002:0001a140       L__piby2_part1             0000000180048140     LIBCMT:remainder_piby2_forAsm.obj
 0002:0001a150       L__piby2_part2             0000000180048150     LIBCMT:remainder_piby2_forAsm.obj
 0002:0001a160       L_piby2_1                  0000000180048160     LIBCMT:remainder_piby2_forAsm.obj
 0002:0001a170       L_piby2_2                  0000000180048170     LIBCMT:remainder_piby2_forAsm.obj
 0002:0001a180       L_piby2_3                  0000000180048180     LIBCMT:remainder_piby2_forAsm.obj
 0002:0001a190       L_piby2_1tail              0000000180048190     LIBCMT:remainder_piby2_forAsm.obj
 0002:0001a1a0       L_piby2_2tail              00000001800481a0     LIBCMT:remainder_piby2_forAsm.obj
 0002:0001a1b0       L_piby2_3tail              00000001800481b0     LIBCMT:remainder_piby2_forAsm.obj
 0002:0001a1c0       L_twobypi                  00000001800481c0     LIBCMT:remainder_piby2_forAsm.obj
 0002:0001a1d0       L_point_five               00000001800481d0     LIBCMT:remainder_piby2_forAsm.obj
 0002:0001a1e0       L_int_three                00000001800481e0     LIBCMT:remainder_piby2_forAsm.obj
 0002:0001a1f0       L_inf_mask_64              00000001800481f0     LIBCMT:remainder_piby2_forAsm.obj
 0002:0001a200       L_signbit                  0000000180048200     LIBCMT:remainder_piby2_forAsm.obj
 0002:0001a210       L_int_1                    0000000180048210     LIBCMT:remainder_piby2_forAsm.obj
 0002:0001a220       L_int_15                   0000000180048220     LIBCMT:remainder_piby2_forAsm.obj
 0002:0001a228       L_int_48                   0000000180048228     LIBCMT:remainder_piby2_forAsm.obj
 0002:0001a230       L_3pio4                    0000000180048230     LIBCMT:remainder_piby2_forAsm.obj
 0002:0001a238       L_5pio4                    0000000180048238     LIBCMT:remainder_piby2_forAsm.obj
 0002:0001a240       L_7pio4                    0000000180048240     LIBCMT:remainder_piby2_forAsm.obj
 0002:0001a248       L_9pio4                    0000000180048248     LIBCMT:remainder_piby2_forAsm.obj
 0002:0001a250       L__2_by_pi_bits            0000000180048250     LIBCMT:remainder_piby2_forAsm.obj
 0002:0001a2f0       L_piby2_lead               00000001800482f0     LIBCMT:remainder_piby2_forFMA3.obj
 0002:0001a300       L_fff800                   0000000180048300     LIBCMT:remainder_piby2_forFMA3.obj
 0002:0001a310       L_piby2_part1              0000000180048310     LIBCMT:remainder_piby2_forFMA3.obj
 0002:0001a320       L_piby2_part2              0000000180048320     LIBCMT:remainder_piby2_forFMA3.obj
 0002:0001a330       L_piby2_part3              0000000180048330     LIBCMT:remainder_piby2_forFMA3.obj
 0002:0001a340       L_piby2_1                  0000000180048340     LIBCMT:remainder_piby2_forFMA3.obj
 0002:0001a350       L_piby2_2                  0000000180048350     LIBCMT:remainder_piby2_forFMA3.obj
 0002:0001a360       L_piby2_3                  0000000180048360     LIBCMT:remainder_piby2_forFMA3.obj
 0002:0001a370       L_piby2_1tail              0000000180048370     LIBCMT:remainder_piby2_forFMA3.obj
 0002:0001a380       L_piby2_2tail              0000000180048380     LIBCMT:remainder_piby2_forFMA3.obj
 0002:0001a390       L_piby2_3tail              0000000180048390     LIBCMT:remainder_piby2_forFMA3.obj
 0002:0001a3a0       L_sign_mask                00000001800483a0     LIBCMT:remainder_piby2_forFMA3.obj
 0002:0001a3b0       L_twobypi                  00000001800483b0     LIBCMT:remainder_piby2_forFMA3.obj
 0002:0001a3c0       L_point_five               00000001800483c0     LIBCMT:remainder_piby2_forFMA3.obj
 0002:0001a3d0       L_int_three                00000001800483d0     LIBCMT:remainder_piby2_forFMA3.obj
 0002:0001a3e0       L_inf_mask_64              00000001800483e0     LIBCMT:remainder_piby2_forFMA3.obj
 0002:0001a3f0       L_signbit                  00000001800483f0     LIBCMT:remainder_piby2_forFMA3.obj
 0002:0001a400       L_r                        0000000180048400     LIBCMT:remainder_piby2_forFMA3.obj
 0002:0001a410       L_xc1                      0000000180048410     LIBCMT:remainder_piby2_forFMA3.obj
 0002:0001a420       L_xc2                      0000000180048420     LIBCMT:remainder_piby2_forFMA3.obj
 0002:0001a430       L_xc3                      0000000180048430     LIBCMT:remainder_piby2_forFMA3.obj
 0002:0001a440       L_sigma                    0000000180048440     LIBCMT:remainder_piby2_forFMA3.obj
 0002:0001a460       L__piby2                   0000000180048460     LIBCMT:remainder_piby2f_forAsm.obj
 0002:0001af90       L__piby2                   0000000180048f90     LIBCMT:remainder_piby2f_forC.obj
 0002:0001afa0       L__2_by_pi_bits            0000000180048fa0     LIBCMT:remainder_piby2f_forC.obj
 0002:0001b4d0       $unwind$_set_errno_from_matherr 00000001800494d0     LIBCMT:fpexcept.obj
 0002:0001b4d0       $unwind$__GSHandlerCheck   00000001800494d0     LIBCMT:gshandler.obj
 0002:0001b4d0       $unwind$_errno             00000001800494d0     LIBCMT:dosmap.obj
 0002:0001b4d0       $unwind$??8type_info@@QEBA_NAEBV0@@Z 00000001800494d0     LIBCMT:typinfo.obj
 0002:0001b4d0       $unwind$_set_error_mode    00000001800494d0     LIBCMT:errmode.obj
 0002:0001b4d0       $unwind$abort              00000001800494d0     LIBCMT:abort.obj
 0002:0001b4d0       $unwind$__doserrno         00000001800494d0     LIBCMT:dosmap.obj
 0002:0001b4d0       $unwind$_mtterm            00000001800494d0     LIBCMT:tidtable.obj
 0002:0001b4d0       $unwind$_statfp            00000001800494d0     LIBCMT:fpctrl.obj
 0002:0001b4d0       $unwind$__termconout       00000001800494d0     LIBCMT:initcon.obj
 0002:0001b4d0       $unwind$_wremove           00000001800494d0     LIBCMT:wunlink.obj
 0002:0001b4d0       $unwind$_purecall          00000001800494d0     LIBCMT:purevirt.obj
 0002:0001b4d0       $unwind$_heap_init         00000001800494d0     LIBCMT:heapinit.obj
 0002:0001b4d0       $unwind$_initp_eh_hooks    00000001800494d0     LIBCMT:hooks.obj
 0002:0001b4d0       $unwind$rand               00000001800494d0     LIBCMT:rand.obj
 0002:0001b4d0       $unwind$_get_fmode         00000001800494d0     LIBCMT:setmode.obj
 0002:0001b4d0       $unwind$_FF_MSGBANNER      00000001800494d0     LIBCMT:crt0msg.obj
 0002:0001b4d0       $unwind$_GetImageBase      00000001800494d0     LIBCMT:trnsctrl.obj
 0002:0001b4d0       $unwind$_GetThrowImageBase 00000001800494d0     LIBCMT:trnsctrl.obj
 0002:0001b4d0       $unwind$__crtDownlevelLocaleNameToLCID 00000001800494d0     LIBCMT:winapinls.obj
 0002:0001b4d0       $unwind$__crtInitializeCriticalSectionEx 00000001800494d0     LIBCMT:winapisupp.obj
 0002:0001b4d0       $unwind$_strnicmp          00000001800494d0     LIBCMT:strnicmp.obj
 0002:0001b4d0       $unwind$_msize             00000001800494d0     LIBCMT:msize.obj
 0002:0001b4d0       $unwind$_stricmp           00000001800494d0     LIBCMT:stricmp.obj
 0002:0001b4d0       $unwind$_fileno            00000001800494d0     LIBCMT:fileno.obj
 0002:0001b4d0       $unwind$__endstdio         00000001800494d0     LIBCMT:_file.obj
 0002:0001b4d0       $unwind$_invoke_watson     00000001800494d0     LIBCMT:invarg.obj
 0002:0001b4d0       $unwind$__FrameUnwindFilter 00000001800494d0     LIBCMT:frame.obj
 0002:0001b4d0       $unwind$_get_osfhandle     00000001800494d0     LIBCMT:osfinfo.obj
 0002:0001b4d0       $unwind$__initmbctable     00000001800494d0     LIBCMT:mbctype.obj
 0002:0001b4d0       $unwind$_isatty            00000001800494d0     LIBCMT:isatty.obj
 0002:0001b4d0       $unwind$?__GetCurrentState@@YAHPEA_KPEAU_xDISPATCHER_CONTEXT@@PEBU_s_FuncInfo@@@Z 00000001800494d0     LIBCMT:ehstate.obj
 0002:0001b4d0       $unwind$atexit             00000001800494d0     LIBCMT:onexit.obj
 0002:0001b4d0       $unwind$?InitAll@@YAXV?$Local@VObject@v8@@@v8@@@Z 00000001800494d0     init.obj
 0002:0001b4d8       $unwind$?assign@?$CImg@E@cimg_library@@QEAAAEAU12@XZ 00000001800494d8     resize_worker.obj
 0002:0001b4d8       $unwind$_getptd            00000001800494d8     LIBCMT:tidtable.obj
 0002:0001b4d8       $unwind$?AsyncExecuteComplete@Nan@@YAXPEAUuv_work_s@@@Z 00000001800494d8     image.obj
 0002:0001b4d8       $unwind$__onexitinit       00000001800494d8     LIBCMT:onexit.obj
 0002:0001b4d8       $unwind$?__GetUnwindTryBlock@@YAHPEA_KPEAU_xDISPATCHER_CONTEXT@@PEBU_s_FuncInfo@@@Z 00000001800494d8     LIBCMT:ehstate.obj
 0002:0001b4d8       $unwind$_init_pointers     00000001800494d8     LIBCMT:crt0dat.obj
 0002:0001b4d8       $unwind$??0bad_alloc@std@@QEAA@AEBV01@@Z 00000001800494d8     libcpmt:xthrow.obj
 0002:0001b4d8       $unwind$??0logic_error@std@@QEAA@AEBV01@@Z 00000001800494d8     libcpmt:xthrow.obj
 0002:0001b4d8       $unwind$?Mutex_attr@cimg@cimg_library@@YAAEAUMutex_info@12@XZ 00000001800494d8     image.obj
 0002:0001b4d8       $unwind$?fclose@cimg@cimg_library@@YAHPEAU_iobuf@@@Z 00000001800494d8     image.obj
 0002:0001b4d8       $unwind$??0length_error@std@@QEAA@AEBV01@@Z 00000001800494d8     libcpmt:xthrow.obj
 0002:0001b4d8       $unwind$write_char         00000001800494d8     LIBCMT:woutput.obj
 0002:0001b4d8       $unwind$_cinit             00000001800494d8     LIBCMT:crt0dat.obj
 0002:0001b4d8       $unwind$srand              00000001800494d8     LIBCMT:rand.obj
 0002:0001b4d8       $unwind$__crtUnhandledException 00000001800494d8     LIBCMT:winapisupp.obj
 0002:0001b4d8       $unwind$??0bad_exception@std@@QEAA@AEBV01@@Z 00000001800494d8     LIBCMT:frame.obj
 0002:0001b4d8       $unwind$_getbuf            00000001800494d8     LIBCMT:_getbuf.obj
 0002:0001b4d8       $unwind$??0out_of_range@std@@QEAA@AEBV01@@Z 00000001800494d8     libcpmt:xthrow.obj
 0002:0001b4d8       $unwind$__crtCorExitProcess 00000001800494d8     LIBCMT:crt0dat.obj
 0002:0001b4d8       $unwind$__crtExitProcess   00000001800494d8     LIBCMT:crt0dat.obj
 0002:0001b4d8       $unwind$__crtLoadWinApiPointers 00000001800494d8     LIBCMT:winapisupp.obj
 0002:0001b4d8       $unwind$??1?$basic_string@DU?$char_traits@D@std@@V?$allocator@D@2@@std@@QEAA@XZ 00000001800494d8     init.obj
 0002:0001b4d8       $unwind$_amsg_exit         00000001800494d8     LIBCMT:crt0dat.obj
 0002:0001b4d8       $unwind$_fflush_nolock     00000001800494d8     LIBCMT:fflush.obj
 0002:0001b4d8       $unwind$_SetThrowImageBase 00000001800494d8     LIBCMT:trnsctrl.obj
 0002:0001b4d8       $unwind$_freeptd           00000001800494d8     LIBCMT:tidtable.obj
 0002:0001b4d8       $unwind$??_Gexception@stdext@@UEAAPEAXI@Z 00000001800494d8     image.obj
 0002:0001b4d8       $unwind$__crtTerminateProcess 00000001800494d8     LIBCMT:winapisupp.obj
 0002:0001b4d8       $unwind$_SetImageBase      00000001800494d8     LIBCMT:trnsctrl.obj
 0002:0001b4d8       $unwind$_callnewh          00000001800494d8     LIBCMT:handler.obj
 0002:0001b4d8       $unwind$write_char         00000001800494d8     LIBCMT:output.obj
 0002:0001b4d8       $unwind$wcsncpy_s          00000001800494d8     LIBCMT:wcsncpy_s.obj
 0002:0001b4d8       $unwind$__GSHandlerCheckCommon 00000001800494d8     LIBCMT:gshandler.obj
 0002:0001b4d8       $unwind$?fill@?$CImg@M@cimg_library@@QEAAAEAU12@AEBM@Z 00000001800494d8     resize_worker.obj
 0002:0001b4d8       $unwind$_clrfp             00000001800494d8     LIBCMT:fpctrl.obj
 0002:0001b4d8       $unwind$_mtinit            00000001800494d8     LIBCMT:tidtable.obj
 0002:0001b4d8       $unwind$wcsncat_s          00000001800494d8     LIBCMT:wcsncat_s.obj
 0002:0001b4d8       $unwind$??0exception@std@@QEAA@AEBQEBD@Z 00000001800494d8     LIBCMT:stdexcpt.obj
 0002:0001b4d8       $unwind$??1CImgInstanceException@cimg_library@@UEAA@XZ 00000001800494d8     image.obj
 0002:0001b4d8       $unwind$write_char         00000001800494d8     LIBCMT:outputs.obj
 0002:0001b4d8       $unwind$__crtIsPackagedApp 00000001800494d8     LIBCMT:winapisupp.obj
 0002:0001b4d8       $unwind$_IsExceptionObjectToBeDestroyed 00000001800494d8     LIBCMT:trnsctrl.obj
 0002:0001b4d8       $unwind$wcscpy_s           00000001800494d8     LIBCMT:wcscpy_s.obj
 0002:0001b4d8       $unwind$_lock_file         00000001800494d8     LIBCMT:_file.obj
 0002:0001b4d8       $unwind$wcscat_s           00000001800494d8     LIBCMT:wcscat_s.obj
 0002:0001b4d8       $unwind$_freebuf           00000001800494d8     LIBCMT:_freebuf.obj
 0002:0001b4d8       $unwind$??0_LocaleUpdate@@QEAA@PEAUlocaleinfo_struct@@@Z 00000001800494d8     LIBCMT:stricmp.obj
 0002:0001b4d8       $unwind$??0exception@std@@QEAA@AEBV01@@Z 00000001800494d8     LIBCMT:stdexcpt.obj
 0002:0001b4d8       $unwind$strcpy_s           00000001800494d8     LIBCMT:strcpy_s.obj
 0002:0001b4d8       $unwind$__raise_securityfailure 00000001800494d8     LIBCMT:gs_report.obj
 0002:0001b4d8       $unwind$_lock_file2        00000001800494d8     LIBCMT:_file.obj
 0002:0001b4d8       $unwind$_CreateFrameInfo   00000001800494d8     LIBCMT:trnsctrl.obj
 0002:0001b4d8       $unwind$load_exe_hook      00000001800494d8     win_delay_load_hook.obj
 0002:0001b4d8       $unwind$?Ref@ObjectWrap@node@@MEAAXXZ 00000001800494d8     image.obj
 0002:0001b4d8       $unwind$??1CImgIOException@cimg_library@@UEAA@XZ 00000001800494d8     image.obj
 0002:0001b4d8       $unwind$?_Tidy@exception@std@@AEAAXXZ 00000001800494d8     LIBCMT:stdexcpt.obj
 0002:0001b4d8       $unwind$??1CImgException@cimg_library@@UEAA@XZ 00000001800494d8     image.obj
 0002:0001b4d8       $unwind$??1CImgArgumentException@cimg_library@@UEAA@XZ 00000001800494d8     image.obj
 0002:0001b4d8       $unwind$?Unref@ObjectWrap@node@@MEAAXXZ 00000001800494d8     image.obj
 0002:0001b4d8       $unwind$remove             00000001800494d8     LIBCMT:unlink.obj
 0002:0001b4d8       $unwind$_set_statfp        00000001800494d8     LIBCMT:fpctrl.obj
 0002:0001b4e0       $unwind$?__StateFromIp@@YAHPEBU_s_FuncInfo@@PEAU_xDISPATCHER_CONTEXT@@_J@Z 00000001800494e0     LIBCMT:ehstate.obj
 0002:0001b4e0       $unwind$_initterm          00000001800494e0     LIBCMT:crt0dat.obj
 0002:0001b4e0       $unwind$?_Copy@?$basic_string@DU?$char_traits@D@std@@V?$allocator@D@2@@std@@QEAAX_K0@Z 00000001800494e0     init.obj
 0002:0001b4e0       $unwind$_mtdeletelocks     00000001800494e0     LIBCMT:mlock.obj
 0002:0001b4e0       $unwind$__freetlocinfo     00000001800494e0     LIBCMT:localref.obj
 0002:0001b4e0       $unwind$_XcptFilter        00000001800494e0     LIBCMT:winxfltr.obj
 0002:0001b4e0       $unwind$xtow_s             00000001800494e0     LIBCMT:xtows.obj
 0002:0001b4e0       $unwind$?assign@?$basic_string@DU?$char_traits@D@std@@V?$allocator@D@2@@std@@QEAAAEAV12@AEBV12@_K1@Z 00000001800494e0     init.obj
 0002:0001b4e0       $unwind$?setSBCS@@YAXPEAUthreadmbcinfostruct@@@Z 00000001800494e0     LIBCMT:mbctype.obj
 0002:0001b4f4       $unwind$_getenv_helper_nolock 00000001800494f4     LIBCMT:getenv.obj
 0002:0001b4f4       $unwind$_lseeki64_nolock   00000001800494f4     LIBCMT:lseeki64.obj
 0002:0001b4f4       $unwind$?SetErrorMessage@AsyncWorker@Nan@@IEAAXPEBD@Z 00000001800494f4     resize_worker.obj
 0002:0001b4f4       $unwind$_exception_enabled 00000001800494f4     LIBCMT:libm_error.obj
 0002:0001b4f4       $unwind$_ioterm            00000001800494f4     LIBCMT:ioinit.obj
 0002:0001b4f4       $unwind$_flush             00000001800494f4     LIBCMT:fflush.obj
 0002:0001b4f4       $unwind$memcpy_s           00000001800494f4     LIBCMT:memcpy_s.obj
 0002:0001b4f4       $unwind$?assign@?$basic_string@DU?$char_traits@D@std@@V?$allocator@D@2@@std@@QEAAAEAV12@PEBD_K@Z 00000001800494f4     init.obj
 0002:0001b4f4       $unwind$_mtinitlocks       00000001800494f4     LIBCMT:mlock.obj
 0002:0001b4f4       $unwind$_recalloc          00000001800494f4     LIBCMT:recalloc.obj
 0002:0001b4f4       $unwind$realloc            00000001800494f4     LIBCMT:realloc.obj
 0002:0001b4f4       $unwind$malloc             00000001800494f4     LIBCMT:malloc.obj
 0002:0001b4f4       $unwind$_DllMainCRTStartup 00000001800494f4     LIBCMT:dllcrt0.obj
 0002:0001b504       $unwind$??_GHSLAWorker@@UEAAPEAXI@Z 0000000180049504     hsla_worker.obj
 0002:0001b504       $unwind$??_GCImgException@cimg_library@@UEAAPEAXI@Z 0000000180049504     image.obj
 0002:0001b504       $unwind$_initp_misc_cfltcvt_tab 0000000180049504     LIBCMT:cmiscdat.obj
 0002:0001b504       $unwind$_fptostr           0000000180049504     LIBCMT:_fptostr.obj
 0002:0001b504       $unwind$??_GObjectWrap@node@@UEAAPEAXI@Z 0000000180049504     image.obj
 0002:0001b504       $unwind$_dosmaperr         0000000180049504     LIBCMT:dosmap.obj
 0002:0001b504       $unwind$??_Gtype_info@@UEAAPEAXI@Z 0000000180049504     LIBCMT:typinfo.obj
 0002:0001b504       $unwind$??_GCropWorker@@UEAAPEAXI@Z 0000000180049504     crop_worker.obj
 0002:0001b504       $unwind$??4exception@std@@QEAAAEAV01@AEBV01@@Z 0000000180049504     LIBCMT:stdexcpt.obj
 0002:0001b504       $unwind$??_GSetPixelWorker@@UEAAPEAXI@Z 0000000180049504     setpixel_worker.obj
 0002:0001b504       $unwind$??_GPasteWorker@@UEAAPEAXI@Z 0000000180049504     paste_worker.obj
 0002:0001b504       $unwind$_updatetlocinfoEx_nolock 0000000180049504     LIBCMT:localref.obj
 0002:0001b504       $unwind$??_GMirrorWorker@@UEAAPEAXI@Z 0000000180049504     mirror_worker.obj
 0002:0001b504       $unwind$_close_nolock      0000000180049504     LIBCMT:close.obj
 0002:0001b504       $unwind$??_Gout_of_range@std@@UEAAPEAXI@Z 0000000180049504     libcpmt:xthrow.obj
 0002:0001b504       $unwind$??_GPadWorker@@UEAAPEAXI@Z 0000000180049504     pad_worker.obj
 0002:0001b504       $unwind$_lock              0000000180049504     LIBCMT:mlock.obj
 0002:0001b504       $unwind$_RTC_Initialize    0000000180049504     LIBCMT:initsect.obj
 0002:0001b504       $unwind$??_GOpacifyWorker@@UEAAPEAXI@Z 0000000180049504     opacify_worker.obj
 0002:0001b504       $unwind$??_GResizeWorker@@UEAAPEAXI@Z 0000000180049504     resize_worker.obj
 0002:0001b504       $unwind$_RTC_Terminate     0000000180049504     LIBCMT:initsect.obj
 0002:0001b504       $unwind$??_GAsyncWorker@Nan@@UEAAPEAXI@Z 0000000180049504     resize_worker.obj
 0002:0001b504       $unwind$??_GCImgArgumentException@cimg_library@@UEAAPEAXI@Z 0000000180049504     image.obj
 0002:0001b504       $unwind$__freeCrtMemory    0000000180049504     LIBCMT:crt0dat.obj
 0002:0001b504       $unwind$??_Gexception@std@@UEAAPEAXI@Z 0000000180049504     LIBCMT:stdexcpt.obj
 0002:0001b504       $unwind$??_Glogic_error@std@@UEAAPEAXI@Z 0000000180049504     libcpmt:xthrow.obj
 0002:0001b504       $unwind$??_GRotateWorker@@UEAAPEAXI@Z 0000000180049504     rotate_worker.obj
 0002:0001b504       $unwind$?erase@?$basic_string@DU?$char_traits@D@std@@V?$allocator@D@2@@std@@QEAAAEAV12@_K0@Z 0000000180049504     init.obj
 0002:0001b504       $unwind$??_Gbad_alloc@std@@UEAAPEAXI@Z 0000000180049504     libcpmt:xthrow.obj
 0002:0001b504       $unwind$??_GBlurWorker@@UEAAPEAXI@Z 0000000180049504     blur_worker.obj
 0002:0001b504       $unwind$?__SetUnwindTryBlock@@YAXPEA_KPEAU_xDISPATCHER_CONTEXT@@PEBU_s_FuncInfo@@H@Z 0000000180049504     LIBCMT:ehstate.obj
 0002:0001b504       $unwind$??_GSharpenWorker@@UEAAPEAXI@Z 0000000180049504     sharpen_worker.obj
 0002:0001b504       $unwind$_FindAndUnlinkFrame 0000000180049504     LIBCMT:trnsctrl.obj
 0002:0001b504       $unwind$_fclose_nolock     0000000180049504     LIBCMT:fclose.obj
 0002:0001b504       $unwind$__initstdio        0000000180049504     LIBCMT:_file.obj
 0002:0001b504       $unwind$??_GCImgInstanceException@cimg_library@@UEAAPEAXI@Z 0000000180049504     image.obj
 0002:0001b504       $unwind$_getptd_noexit     0000000180049504     LIBCMT:tidtable.obj
 0002:0001b504       $unwind$_calloc_impl       0000000180049504     LIBCMT:calloc_impl.obj
 0002:0001b504       $unwind$_initterm_e        0000000180049504     LIBCMT:crt0dat.obj
 0002:0001b504       $unwind$??_GCImgIOException@cimg_library@@UEAAPEAXI@Z 0000000180049504     image.obj
 0002:0001b504       $unwind$??_Gbad_exception@std@@UEAAPEAXI@Z 0000000180049504     LIBCMT:frame.obj
 0002:0001b504       $unwind$??_Glength_error@std@@UEAAPEAXI@Z 0000000180049504     libcpmt:xthrow.obj
 0002:0001b510       $unwind$??1ObjectWrap@node@@UEAA@XZ 0000000180049510     image.obj
 0002:0001b520       $stateUnwindMap$??1ObjectWrap@node@@UEAA@XZ 0000000180049520     image.obj
 0002:0001b528       $ip2state$??1ObjectWrap@node@@UEAA@XZ 0000000180049528     image.obj
 0002:0001b540       $unwind$?Wrap@ObjectWrap@node@@IEAAXV?$Local@VObject@v8@@@v8@@@Z 0000000180049540     image.obj
 0002:0001b54c       $unwind$?WeakCallback@ObjectWrap@node@@CAXAEBV?$WeakCallbackData@VObject@v8@@VObjectWrap@node@@@v8@@@Z 000000018004954c     image.obj
 0002:0001b564       $stateUnwindMap$?WeakCallback@ObjectWrap@node@@CAXAEBV?$WeakCallbackData@VObject@v8@@VObjectWrap@node@@@v8@@@Z 0000000180049564     image.obj
 0002:0001b570       $ip2state$?WeakCallback@ObjectWrap@node@@CAXAEBV?$WeakCallbackData@VObject@v8@@VObjectWrap@node@@@v8@@@Z 0000000180049570     image.obj
 0002:0001b588       $unwind$_setargv           0000000180049588     LIBCMT:stdargv.obj
 0002:0001b588       $unwind$?FunctionCallbackWrapper@imp@Nan@@YAXAEBV?$FunctionCallbackInfo@VValue@v8@@@v8@@@Z 0000000180049588     image.obj
 0002:0001b598       $unwind$?New@?$Factory@VFunctionTemplate@v8@@@imp@Nan@@SA?AV?$Local@VFunctionTemplate@v8@@@v8@@P6AXAEBV?$FunctionCallbackInfo@VValue@v8@@@3@@ZV?$Local@VValue@v8@@@5@V?$Local@VSignature@v8@@@5@@Z 0000000180049598     image.obj
 0002:0001b5b0       $stateUnwindMap$?New@?$Factory@VFunctionTemplate@v8@@@imp@Nan@@SA?AV?$Local@VFunctionTemplate@v8@@@v8@@P6AXAEBV?$FunctionCallbackInfo@VValue@v8@@@3@@ZV?$Local@VValue@v8@@@5@V?$Local@VSignature@v8@@@5@@Z 00000001800495b0     image.obj
 0002:0001b5b8       $ip2state$?New@?$Factory@VFunctionTemplate@v8@@@imp@Nan@@SA?AV?$Local@VFunctionTemplate@v8@@@v8@@P6AXAEBV?$FunctionCallbackInfo@VValue@v8@@@3@@ZV?$Local@VValue@v8@@@5@V?$Local@VSignature@v8@@@5@@Z 00000001800495b8     image.obj
 0002:0001b5d0       $unwind$??0Callback@Nan@@QEAA@AEBV?$Local@VFunction@v8@@@v8@@@Z 00000001800495d0     image.obj
 0002:0001b5e8       $stateUnwindMap$??0Callback@Nan@@QEAA@AEBV?$Local@VFunction@v8@@@v8@@@Z 00000001800495e8     image.obj
 0002:0001b600       $ip2state$??0Callback@Nan@@QEAA@AEBV?$Local@VFunction@v8@@@v8@@@Z 0000000180049600     image.obj
 0002:0001b638       $unwind$?_snprintf@cimg@cimg_library@@YAHQEAD_KQEBDZZ 0000000180049638     image.obj
 0002:0001b640       $unwind$?_vsnprintf@cimg@cimg_library@@YAHQEAD_KQEBDPEAD@Z 0000000180049640     image.obj
 0002:0001b640       $unwind$_strdup            0000000180049640     LIBCMT:strdup.obj
 0002:0001b650       $unwind$??0CImgException@cimg_library@@QEAA@AEBU01@@Z 0000000180049650     image.obj
 0002:0001b664       $stateUnwindMap$??0CImgIOException@cimg_library@@QEAA@AEBU01@@Z 0000000180049664     image.obj
 0002:0001b664       $stateUnwindMap$??0CImgException@cimg_library@@QEAA@AEBU01@@Z 0000000180049664     image.obj
 0002:0001b664       $stateUnwindMap$??0CImgArgumentException@cimg_library@@QEAA@AEBU01@@Z 0000000180049664     image.obj
 0002:0001b664       $stateUnwindMap$??0CImgInstanceException@cimg_library@@QEAA@AEBU01@@Z 0000000180049664     image.obj
 0002:0001b670       $ip2state$??0CImgException@cimg_library@@QEAA@AEBU01@@Z 0000000180049670     image.obj
 0002:0001b688       $unwind$??0CImgArgumentException@cimg_library@@QEAA@QEBDZZ 0000000180049688     image.obj
 0002:0001b698       $stateUnwindMap$??0CImgIOException@cimg_library@@QEAA@QEBDZZ 0000000180049698     image.obj
 0002:0001b698       $stateUnwindMap$??0CImgInstanceException@cimg_library@@QEAA@QEBDZZ 0000000180049698     image.obj
 0002:0001b698       $stateUnwindMap$??0CImgArgumentException@cimg_library@@QEAA@QEBDZZ 0000000180049698     image.obj
 0002:0001b6c0       $ip2state$??0CImgArgumentException@cimg_library@@QEAA@QEBDZZ 00000001800496c0     image.obj
 0002:0001b6e0       $unwind$??0CImgInstanceException@cimg_library@@QEAA@QEBDZZ 00000001800496e0     image.obj
 0002:0001b6f0       $ip2state$??0CImgInstanceException@cimg_library@@QEAA@QEBDZZ 00000001800496f0     image.obj
 0002:0001b710       $unwind$??0CImgIOException@cimg_library@@QEAA@QEBDZZ 0000000180049710     image.obj
 0002:0001b720       $ip2state$??0CImgIOException@cimg_library@@QEAA@QEBDZZ 0000000180049720     image.obj
 0002:0001b740       $chain$1$?Mutex_attr@cimg@cimg_library@@YAAEAUMutex_info@12@XZ 0000000180049740     image.obj
 0002:0001b758       $chain$2$?Mutex_attr@cimg@cimg_library@@YAAEAUMutex_info@12@XZ 0000000180049758     image.obj
 0002:0001b768       $unwind$?warn@cimg@cimg_library@@YAXQEBDZZ 0000000180049768     image.obj
 0002:0001b770       $chain$0$?warn@cimg@cimg_library@@YAXQEBDZZ 0000000180049770     image.obj
 0002:0001b784       $chain$1$?warn@cimg@cimg_library@@YAXQEBDZZ 0000000180049784     image.obj
 0002:0001b794       $unwind$?filenamerand@cimg@cimg_library@@YAPEBDXZ 0000000180049794     image.obj
 0002:0001b7a8       $unwind$free               00000001800497a8     LIBCMT:free.obj
 0002:0001b7a8       $unwind$__free_lconv_num   00000001800497a8     LIBCMT:initnum.obj
 0002:0001b7a8       $unwind$?winformat_string@cimg@cimg_library@@YAXQEAD@Z 00000001800497a8     image.obj
 0002:0001b7b0       $chain$0$?winformat_string@cimg@cimg_library@@YAXQEAD@Z 00000001800497b0     image.obj
 0002:0001b7c4       $chain$1$?winformat_string@cimg@cimg_library@@YAXQEAD@Z 00000001800497c4     image.obj
 0002:0001b7d4       $unwind$??0CImgInstanceException@cimg_library@@QEAA@AEBU01@@Z 00000001800497d4     image.obj
 0002:0001b7d4       $unwind$??0CImgIOException@cimg_library@@QEAA@AEBU01@@Z 00000001800497d4     image.obj
 0002:0001b7d4       $unwind$??0CImgArgumentException@cimg_library@@QEAA@AEBU01@@Z 00000001800497d4     image.obj
 0002:0001b7e8       $ip2state$??0CImgInstanceException@cimg_library@@QEAA@AEBU01@@Z 00000001800497e8     image.obj
 0002:0001b7e8       $ip2state$??0CImgArgumentException@cimg_library@@QEAA@AEBU01@@Z 00000001800497e8     image.obj
 0002:0001b7e8       $ip2state$??0CImgIOException@cimg_library@@QEAA@AEBU01@@Z 00000001800497e8     image.obj
 0002:0001b800       $unwind$?info@cimg@cimg_library@@YAXXZ 0000000180049800     image.obj
 0002:0001b80c       $unwind$?temporary_path@cimg@cimg_library@@YAPEBDQEBD_N@Z 000000018004980c     image.obj
 0002:0001b82c       $stateUnwindMap$?temporary_path@cimg@cimg_library@@YAPEBDQEBD_N@Z 000000018004982c     image.obj
 0002:0001b840       $ip2state$?temporary_path@cimg@cimg_library@@YAPEBDQEBD_N@Z 0000000180049840     image.obj
 0002:0001b878       $unwind$_vsnprintf         0000000180049878     LIBCMT:vsnprint.obj
 0002:0001b878       $unwind$_vswprintf_c_l     0000000180049878     LIBCMT:vswprnc.obj
 0002:0001b878       $unwind$_vsnprintf_s       0000000180049878     LIBCMT:vsnprnc.obj
 0002:0001b878       $unwind$?programfiles_path@cimg@cimg_library@@YAPEBDQEBD_N@Z 0000000180049878     image.obj
 0002:0001b878       $unwind$wctomb_s           0000000180049878     LIBCMT:wctomb.obj
 0002:0001b878       $unwind$_sopen_s           0000000180049878     LIBCMT:open.obj
 0002:0001b878       $unwind$?medcon_path@cimg@cimg_library@@YAPEBDQEBD_N@Z 0000000180049878     image.obj
 0002:0001b878       $unwind$_invalid_parameter_noinfo 0000000180049878     LIBCMT:invarg.obj
 0002:0001b878       $unwind$_cfltcvt_l         0000000180049878     LIBCMT:cvt.obj
 0002:0001b878       $unwind$_itow_s            0000000180049878     LIBCMT:xtows.obj
 0002:0001b880       $unwind$?graphicsmagick_path@cimg@cimg_library@@YAPEBDQEBD_N@Z 0000000180049880     image.obj
 0002:0001b880       $unwind$?imagemagick_path@cimg@cimg_library@@YAPEBDQEBD_N@Z 0000000180049880     image.obj
 0002:0001b88c       $chain$4$?imagemagick_path@cimg@cimg_library@@YAPEBDQEBD_N@Z 000000018004988c     image.obj
 0002:0001b8ac       $chain$5$?imagemagick_path@cimg@cimg_library@@YAPEBDQEBD_N@Z 00000001800498ac     image.obj
 0002:0001b8c8       $chain$6$?imagemagick_path@cimg@cimg_library@@YAPEBDQEBD_N@Z 00000001800498c8     image.obj
 0002:0001b8e0       $chain$7$?imagemagick_path@cimg@cimg_library@@YAPEBDQEBD_N@Z 00000001800498e0     image.obj
 0002:0001b8f4       $chain$8$?imagemagick_path@cimg@cimg_library@@YAPEBDQEBD_N@Z 00000001800498f4     image.obj
 0002:0001b904       $chain$4$?graphicsmagick_path@cimg@cimg_library@@YAPEBDQEBD_N@Z 0000000180049904     image.obj
 0002:0001b924       $chain$5$?graphicsmagick_path@cimg@cimg_library@@YAPEBDQEBD_N@Z 0000000180049924     image.obj
 0002:0001b940       $chain$6$?graphicsmagick_path@cimg@cimg_library@@YAPEBDQEBD_N@Z 0000000180049940     image.obj
 0002:0001b958       $chain$7$?graphicsmagick_path@cimg@cimg_library@@YAPEBDQEBD_N@Z 0000000180049958     image.obj
 0002:0001b96c       $chain$8$?graphicsmagick_path@cimg@cimg_library@@YAPEBDQEBD_N@Z 000000018004996c     image.obj
 0002:0001b97c       $chain$0$?medcon_path@cimg@cimg_library@@YAPEBDQEBD_N@Z 000000018004997c     image.obj
 0002:0001b990       $chain$1$?medcon_path@cimg@cimg_library@@YAPEBDQEBD_N@Z 0000000180049990     image.obj
 0002:0001b9a0       $unwind$?strbuffersize@cimg@cimg_library@@YAPEBDK@Z 00000001800499a0     image.obj
 0002:0001b9b0       $stateUnwindMap$?strbuffersize@cimg@cimg_library@@YAPEBDK@Z 00000001800499b0     image.obj
 0002:0001b9b8       $ip2state$?strbuffersize@cimg@cimg_library@@YAPEBDK@Z 00000001800499b8     image.obj
 0002:0001b9d0       $unwind$?dtor$0@?0??strbuffersize@cimg@cimg_library@@YAPEBDK@Z@4HA 00000001800499d0     image.obj
 0002:0001b9d8       $unwind$?Init@LwipImage@@SAXV?$Local@VObject@v8@@@v8@@@Z 00000001800499d8     image.obj
 0002:0001b9f0       $stateUnwindMap$?Init@LwipImage@@SAXV?$Local@VObject@v8@@@v8@@@Z 00000001800499f0     image.obj
 0002:0001ba70       $ip2state$?Init@LwipImage@@SAXV?$Local@VObject@v8@@@v8@@@Z 0000000180049a70     image.obj
 0002:0001bb68       $unwind$??0LwipImage@@QEAA@PEAE_K1@Z 0000000180049b68     image.obj
 0002:0001bb84       $stateUnwindMap$??0LwipImage@@QEAA@PEAE_K1@Z 0000000180049b84     image.obj
 0002:0001bb98       $ip2state$??0LwipImage@@QEAA@PEAE_K1@Z 0000000180049b98     image.obj
 0002:0001bbc0       $unwind$??_GLwipImage@@UEAAPEAXI@Z 0000000180049bc0     image.obj
 0002:0001bbd8       $stateUnwindMap$??_GLwipImage@@UEAAPEAXI@Z 0000000180049bd8     image.obj
 0002:0001bbe0       $ip2state$??_GLwipImage@@UEAAPEAXI@Z 0000000180049be0     image.obj
 0002:0001bbf8       $unwind$?New@LwipImage@@SAXAEBV?$FunctionCallbackInfo@VValue@v8@@@Nan@@@Z 0000000180049bf8     image.obj
 0002:0001bc18       $stateUnwindMap$?New@LwipImage@@SAXAEBV?$FunctionCallbackInfo@VValue@v8@@@Nan@@@Z 0000000180049c18     image.obj
 0002:0001bc20       $ip2state$?New@LwipImage@@SAXAEBV?$FunctionCallbackInfo@VValue@v8@@@Nan@@@Z 0000000180049c20     image.obj
 0002:0001bc38       $unwind$?height@LwipImage@@SAXAEBV?$FunctionCallbackInfo@VValue@v8@@@Nan@@@Z 0000000180049c38     image.obj
 0002:0001bc38       $unwind$?width@LwipImage@@SAXAEBV?$FunctionCallbackInfo@VValue@v8@@@Nan@@@Z 0000000180049c38     image.obj
 0002:0001bc44       $unwind$?getPixel@LwipImage@@SAXAEBV?$FunctionCallbackInfo@VValue@v8@@@Nan@@@Z 0000000180049c44     image.obj
 0002:0001bc5c       $unwind$?buffer@LwipImage@@SAXAEBV?$FunctionCallbackInfo@VValue@v8@@@Nan@@@Z 0000000180049c5c     image.obj
 0002:0001bc5c       $unwind$__CxxFrameHandler3 0000000180049c5c     LIBCMT:trnsctrl.obj
 0002:0001bc6c       $unwind$?resize@LwipImage@@SAXAEBV?$FunctionCallbackInfo@VValue@v8@@@Nan@@@Z 0000000180049c6c     image.obj
 0002:0001bc88       $stateUnwindMap$?resize@LwipImage@@SAXAEBV?$FunctionCallbackInfo@VValue@v8@@@Nan@@@Z 0000000180049c88     image.obj
 0002:0001bc98       $ip2state$?resize@LwipImage@@SAXAEBV?$FunctionCallbackInfo@VValue@v8@@@Nan@@@Z 0000000180049c98     image.obj
 0002:0001bcc0       $unwind$?rotate@LwipImage@@SAXAEBV?$FunctionCallbackInfo@VValue@v8@@@Nan@@@Z 0000000180049cc0     image.obj
 0002:0001bce4       $stateUnwindMap$?rotate@LwipImage@@SAXAEBV?$FunctionCallbackInfo@VValue@v8@@@Nan@@@Z 0000000180049ce4     image.obj
 0002:0001bce4       $stateUnwindMap$?crop@LwipImage@@SAXAEBV?$FunctionCallbackInfo@VValue@v8@@@Nan@@@Z 0000000180049ce4     image.obj
 0002:0001bcf8       $ip2state$?rotate@LwipImage@@SAXAEBV?$FunctionCallbackInfo@VValue@v8@@@Nan@@@Z 0000000180049cf8     image.obj
 0002:0001bd20       $unwind$?blur@LwipImage@@SAXAEBV?$FunctionCallbackInfo@VValue@v8@@@Nan@@@Z 0000000180049d20     image.obj
 0002:0001bd3c       $stateUnwindMap$?sharpen@LwipImage@@SAXAEBV?$FunctionCallbackInfo@VValue@v8@@@Nan@@@Z 0000000180049d3c     image.obj
 0002:0001bd3c       $stateUnwindMap$?blur@LwipImage@@SAXAEBV?$FunctionCallbackInfo@VValue@v8@@@Nan@@@Z 0000000180049d3c     image.obj
 0002:0001bd3c       $stateUnwindMap$?mirror@LwipImage@@SAXAEBV?$FunctionCallbackInfo@VValue@v8@@@Nan@@@Z 0000000180049d3c     image.obj
 0002:0001bd50       $ip2state$?blur@LwipImage@@SAXAEBV?$FunctionCallbackInfo@VValue@v8@@@Nan@@@Z 0000000180049d50     image.obj
 0002:0001bd78       $unwind$?crop@LwipImage@@SAXAEBV?$FunctionCallbackInfo@VValue@v8@@@Nan@@@Z 0000000180049d78     image.obj
 0002:0001bda0       $ip2state$?crop@LwipImage@@SAXAEBV?$FunctionCallbackInfo@VValue@v8@@@Nan@@@Z 0000000180049da0     image.obj
 0002:0001bdc8       $unwind$?mirror@LwipImage@@SAXAEBV?$FunctionCallbackInfo@VValue@v8@@@Nan@@@Z 0000000180049dc8     image.obj
 0002:0001bde8       $ip2state$?mirror@LwipImage@@SAXAEBV?$FunctionCallbackInfo@VValue@v8@@@Nan@@@Z 0000000180049de8     image.obj
 0002:0001be10       $unwind$?pad@LwipImage@@SAXAEBV?$FunctionCallbackInfo@VValue@v8@@@Nan@@@Z 0000000180049e10     image.obj
 0002:0001be34       $stateUnwindMap$?pad@LwipImage@@SAXAEBV?$FunctionCallbackInfo@VValue@v8@@@Nan@@@Z 0000000180049e34     image.obj
 0002:0001be48       $ip2state$?pad@LwipImage@@SAXAEBV?$FunctionCallbackInfo@VValue@v8@@@Nan@@@Z 0000000180049e48     image.obj
 0002:0001be70       $unwind$?sharpen@LwipImage@@SAXAEBV?$FunctionCallbackInfo@VValue@v8@@@Nan@@@Z 0000000180049e70     image.obj
 0002:0001be90       $ip2state$?sharpen@LwipImage@@SAXAEBV?$FunctionCallbackInfo@VValue@v8@@@Nan@@@Z 0000000180049e90     image.obj
 0002:0001beb8       $unwind$?hslaAdj@LwipImage@@SAXAEBV?$FunctionCallbackInfo@VValue@v8@@@Nan@@@Z 0000000180049eb8     image.obj
 0002:0001bee0       $stateUnwindMap$?hslaAdj@LwipImage@@SAXAEBV?$FunctionCallbackInfo@VValue@v8@@@Nan@@@Z 0000000180049ee0     image.obj
 0002:0001bef0       $ip2state$?hslaAdj@LwipImage@@SAXAEBV?$FunctionCallbackInfo@VValue@v8@@@Nan@@@Z 0000000180049ef0     image.obj
 0002:0001bf18       $unwind$?opacify@LwipImage@@SAXAEBV?$FunctionCallbackInfo@VValue@v8@@@Nan@@@Z 0000000180049f18     image.obj
 0002:0001bf30       $stateUnwindMap$?opacify@LwipImage@@SAXAEBV?$FunctionCallbackInfo@VValue@v8@@@Nan@@@Z 0000000180049f30     image.obj
 0002:0001bf40       $ip2state$?opacify@LwipImage@@SAXAEBV?$FunctionCallbackInfo@VValue@v8@@@Nan@@@Z 0000000180049f40     image.obj
 0002:0001bf68       $unwind$?paste@LwipImage@@SAXAEBV?$FunctionCallbackInfo@VValue@v8@@@Nan@@@Z 0000000180049f68     image.obj
 0002:0001bf88       $stateUnwindMap$?paste@LwipImage@@SAXAEBV?$FunctionCallbackInfo@VValue@v8@@@Nan@@@Z 0000000180049f88     image.obj
 0002:0001bf98       $ip2state$?paste@LwipImage@@SAXAEBV?$FunctionCallbackInfo@VValue@v8@@@Nan@@@Z 0000000180049f98     image.obj
 0002:0001bfc0       $unwind$?setPixel@LwipImage@@SAXAEBV?$FunctionCallbackInfo@VValue@v8@@@Nan@@@Z 0000000180049fc0     image.obj
 0002:0001bfe4       $stateUnwindMap$?setPixel@LwipImage@@SAXAEBV?$FunctionCallbackInfo@VValue@v8@@@Nan@@@Z 0000000180049fe4     image.obj
 0002:0001bff8       $ip2state$?setPixel@LwipImage@@SAXAEBV?$FunctionCallbackInfo@VValue@v8@@@Nan@@@Z 0000000180049ff8     image.obj
 0002:0001c020       $unwind$??0?$CImg@D@cimg_library@@QEAA@IIII@Z 000000018004a020     image.obj
 0002:0001c034       $stateUnwindMap$?assign@?$CImg@E@cimg_library@@QEAAAEAU12@QEBEIIII@Z 000000018004a034     resize_worker.obj
 0002:0001c034       $stateUnwindMap$?assign@?$CImg@E@cimg_library@@QEAAAEAU12@IIII@Z 000000018004a034     resize_worker.obj
 0002:0001c034       $stateUnwindMap$??0?$CImg@E@cimg_library@@QEAA@AEBU01@_N@Z 000000018004a034     resize_worker.obj
 0002:0001c034       $stateUnwindMap$??0?$CImg@E@cimg_library@@QEAA@IIII@Z 000000018004a034     image.obj
 0002:0001c034       $stateUnwindMap$??0?$CImg@I@cimg_library@@QEAA@IIII@Z 000000018004a034     resize_worker.obj
 0002:0001c034       $stateUnwindMap$??0?$CImg@E@cimg_library@@QEAA@QEBEIIII_N@Z 000000018004a034     image.obj
 0002:0001c034       $stateUnwindMap$??0?$CImg@M@cimg_library@@QEAA@IIII@Z 000000018004a034     resize_worker.obj
 0002:0001c034       $stateUnwindMap$?assign@?$CImg@D@cimg_library@@QEAAAEAU12@IIII@Z 000000018004a034     image.obj
 0002:0001c034       $stateUnwindMap$??0?$CImg@E@cimg_library@@QEAA@AEBU01@@Z 000000018004a034     image.obj
 0002:0001c034       $stateUnwindMap$??0?$CImg@M@cimg_library@@QEAA@IIIIAEBM@Z 000000018004a034     resize_worker.obj
 0002:0001c034       $stateUnwindMap$??0?$CImg@E@cimg_library@@QEAA@IIIIAEBE@Z 000000018004a034     resize_worker.obj
 0002:0001c034       $stateUnwindMap$??0?$CImg@D@cimg_library@@QEAA@IIII@Z 000000018004a034     image.obj
 0002:0001c034       $stateUnwindMap$??0?$CImg@K@cimg_library@@QEAA@IIII@Z 000000018004a034     resize_worker.obj
 0002:0001c044       $tryMap$??0?$CImg@D@cimg_library@@QEAA@IIII@Z 000000018004a044     image.obj
 0002:0001c058       $handlerMap$0$??0?$CImg@D@cimg_library@@QEAA@IIII@Z 000000018004a058     image.obj
 0002:0001c070       $ip2state$??0?$CImg@D@cimg_library@@QEAA@IIII@Z 000000018004a070     image.obj
 0002:0001c098       $unwind$?catch$0@?0???0?$CImg@D@cimg_library@@QEAA@IIII@Z@4HA 000000018004a098     image.obj
 0002:0001c0ac       $unwind$?assign@?$CImg@D@cimg_library@@QEAAAEAU12@IIII@Z 000000018004a0ac     image.obj
 0002:0001c0c4       $tryMap$?assign@?$CImg@D@cimg_library@@QEAAAEAU12@IIII@Z 000000018004a0c4     image.obj
 0002:0001c0d8       $handlerMap$0$?assign@?$CImg@D@cimg_library@@QEAAAEAU12@IIII@Z 000000018004a0d8     image.obj
 0002:0001c0f0       $ip2state$?assign@?$CImg@D@cimg_library@@QEAAAEAU12@IIII@Z 000000018004a0f0     image.obj
 0002:0001c118       $unwind$?catch$0@?0??assign@?$CImg@D@cimg_library@@QEAAAEAU12@IIII@Z@4HA 000000018004a118     image.obj
 0002:0001c12c       $unwind$??0?$CImg@E@cimg_library@@QEAA@QEBEIIII_N@Z 000000018004a12c     image.obj
 0002:0001c144       $tryMap$??0?$CImg@E@cimg_library@@QEAA@QEBEIIII_N@Z 000000018004a144     image.obj
 0002:0001c158       $handlerMap$0$??0?$CImg@E@cimg_library@@QEAA@QEBEIIII_N@Z 000000018004a158     image.obj
 0002:0001c170       $ip2state$??0?$CImg@E@cimg_library@@QEAA@QEBEIIII_N@Z 000000018004a170     image.obj
 0002:0001c198       $unwind$?catch$0@?0???0?$CImg@E@cimg_library@@QEAA@QEBEIIII_N@Z@4HA 000000018004a198     image.obj
 0002:0001c1b0       $unwind$??0?$CImg@E@cimg_library@@QEAA@IIII@Z 000000018004a1b0     image.obj
 0002:0001c1c4       $tryMap$??0?$CImg@E@cimg_library@@QEAA@IIII@Z 000000018004a1c4     image.obj
 0002:0001c1d8       $handlerMap$0$??0?$CImg@E@cimg_library@@QEAA@IIII@Z 000000018004a1d8     image.obj
 0002:0001c1f0       $ip2state$??0?$CImg@E@cimg_library@@QEAA@IIII@Z 000000018004a1f0     image.obj
 0002:0001c218       $unwind$?catch$0@?0???0?$CImg@E@cimg_library@@QEAA@IIII@Z@4HA 000000018004a218     image.obj
 0002:0001c234       $unwind$??0?$CImg@E@cimg_library@@QEAA@AEBU01@@Z 000000018004a234     image.obj
 0002:0001c250       $tryMap$??0?$CImg@E@cimg_library@@QEAA@AEBU01@@Z 000000018004a250     image.obj
 0002:0001c264       $handlerMap$0$??0?$CImg@E@cimg_library@@QEAA@AEBU01@@Z 000000018004a264     image.obj
 0002:0001c278       $ip2state$??0?$CImg@E@cimg_library@@QEAA@AEBU01@@Z 000000018004a278     image.obj
 0002:0001c2a0       $unwind$?catch$0@?0???0?$CImg@E@cimg_library@@QEAA@AEBU01@@Z@4HA 000000018004a2a0     image.obj
 0002:0001c2bc       $unwind$??$Unwrap@VLwipImage@@@ObjectWrap@node@@SAPEAVLwipImage@@V?$Local@VObject@v8@@@v8@@@Z 000000018004a2bc     image.obj
 0002:0001c2c4       $unwind$?Call_@Callback@Nan@@AEBA?AV?$Local@VValue@v8@@@v8@@PEAVIsolate@4@V?$Local@VObject@v8@@@4@HQEAV34@@Z 000000018004a2c4     resize_worker.obj
 0002:0001c2dc       $stateUnwindMap$?Call_@Callback@Nan@@AEBA?AV?$Local@VValue@v8@@@v8@@PEAVIsolate@4@V?$Local@VObject@v8@@@4@HQEAV34@@Z 000000018004a2dc     resize_worker.obj
 0002:0001c2dc       $stateUnwindMap$?HandleErrorCallback@AsyncWorker@Nan@@MEAAXXZ 000000018004a2dc     resize_worker.obj
 0002:0001c2e8       $ip2state$?Call_@Callback@Nan@@AEBA?AV?$Local@VValue@v8@@@v8@@PEAVIsolate@4@V?$Local@VObject@v8@@@4@HQEAV34@@Z 000000018004a2e8     resize_worker.obj
 0002:0001c300       $unwind$??0AsyncWorker@Nan@@QEAA@PEAVCallback@1@@Z 000000018004a300     resize_worker.obj
 0002:0001c314       $stateUnwindMap$??0AsyncWorker@Nan@@QEAA@PEAVCallback@1@@Z 000000018004a314     resize_worker.obj
 0002:0001c328       $ip2state$??0AsyncWorker@Nan@@QEAA@PEAVCallback@1@@Z 000000018004a328     resize_worker.obj
 0002:0001c350       $unwind$??1AsyncWorker@Nan@@UEAA@XZ 000000018004a350     resize_worker.obj
 0002:0001c364       $stateUnwindMap$??1AsyncWorker@Nan@@UEAA@XZ 000000018004a364     resize_worker.obj
 0002:0001c380       $ip2state$??1AsyncWorker@Nan@@UEAA@XZ 000000018004a380     resize_worker.obj
 0002:0001c3b8       $unwind$?WorkComplete@AsyncWorker@Nan@@UEAAXXZ 000000018004a3b8     resize_worker.obj
 0002:0001c3cc       $stateUnwindMap$?WorkComplete@AsyncWorker@Nan@@UEAAXXZ 000000018004a3cc     resize_worker.obj
 0002:0001c3e0       $ip2state$?WorkComplete@AsyncWorker@Nan@@UEAAXXZ 000000018004a3e0     resize_worker.obj
 0002:0001c408       $unwind$?HandleOKCallback@AsyncWorker@Nan@@MEAAXXZ 000000018004a408     resize_worker.obj
 0002:0001c414       $unwind$?HandleErrorCallback@AsyncWorker@Nan@@MEAAXXZ 000000018004a414     resize_worker.obj
 0002:0001c428       $ip2state$?HandleErrorCallback@AsyncWorker@Nan@@MEAAXXZ 000000018004a428     resize_worker.obj
 0002:0001c440       $unwind$?Execute@ResizeWorker@@UEAAXXZ 000000018004a440     resize_worker.obj
 0002:0001c450       $stateUnwindMap$?Execute@ResizeWorker@@UEAAXXZ 000000018004a450     resize_worker.obj
 0002:0001c468       $tryMap$?Execute@ResizeWorker@@UEAAXXZ 000000018004a468     resize_worker.obj
 0002:0001c47c       $handlerMap$0$?Execute@ResizeWorker@@UEAAXXZ 000000018004a47c     resize_worker.obj
 0002:0001c490       $ip2state$?Execute@ResizeWorker@@UEAAXXZ 000000018004a490     resize_worker.obj
 0002:0001c4c8       $unwind$?catch$0@?0??Execute@ResizeWorker@@UEAAXXZ@4HA 000000018004a4c8     resize_worker.obj
 0002:0001c4d8       $unwind$?HandleOKCallback@BlurWorker@@UEAAXXZ 000000018004a4d8     blur_worker.obj
 0002:0001c4d8       $unwind$?HandleOKCallback@MirrorWorker@@UEAAXXZ 000000018004a4d8     mirror_worker.obj
 0002:0001c4d8       $unwind$?HandleOKCallback@OpacifyWorker@@UEAAXXZ 000000018004a4d8     opacify_worker.obj
 0002:0001c4d8       $unwind$?HandleOKCallback@SharpenWorker@@UEAAXXZ 000000018004a4d8     sharpen_worker.obj
 0002:0001c4d8       $unwind$?HandleOKCallback@PasteWorker@@UEAAXXZ 000000018004a4d8     paste_worker.obj
 0002:0001c4d8       $unwind$?HandleOKCallback@CropWorker@@UEAAXXZ 000000018004a4d8     crop_worker.obj
 0002:0001c4d8       $unwind$?HandleOKCallback@RotateWorker@@UEAAXXZ 000000018004a4d8     rotate_worker.obj
 0002:0001c4d8       $unwind$?HandleOKCallback@SetPixelWorker@@UEAAXXZ 000000018004a4d8     setpixel_worker.obj
 0002:0001c4d8       $unwind$?HandleOKCallback@PadWorker@@UEAAXXZ 000000018004a4d8     pad_worker.obj
 0002:0001c4d8       $unwind$?HandleOKCallback@ResizeWorker@@UEAAXXZ 000000018004a4d8     resize_worker.obj
 0002:0001c4d8       $unwind$?HandleOKCallback@HSLAWorker@@UEAAXXZ 000000018004a4d8     hsla_worker.obj
 0002:0001c4e4       $unwind$??0?$CImg@K@cimg_library@@QEAA@IIII@Z 000000018004a4e4     resize_worker.obj
 0002:0001c4f8       $tryMap$??0?$CImg@K@cimg_library@@QEAA@IIII@Z 000000018004a4f8     resize_worker.obj
 0002:0001c50c       $handlerMap$0$??0?$CImg@K@cimg_library@@QEAA@IIII@Z 000000018004a50c     resize_worker.obj
 0002:0001c520       $ip2state$??0?$CImg@K@cimg_library@@QEAA@IIII@Z 000000018004a520     resize_worker.obj
 0002:0001c548       $unwind$?catch$0@?0???0?$CImg@K@cimg_library@@QEAA@IIII@Z@4HA 000000018004a548     resize_worker.obj
 0002:0001c55c       $unwind$?resize@?$CImg@E@cimg_library@@QEAAAEAU12@HHHHHIMMMM@Z 000000018004a55c     resize_worker.obj
 0002:0001c578       $stateUnwindMap$?resize@?$CImg@E@cimg_library@@QEAAAEAU12@HHHHHIMMMM@Z 000000018004a578     resize_worker.obj
 0002:0001c578       $stateUnwindMap$?crop@?$CImg@E@cimg_library@@QEAAAEAU12@HHHHHHHH_N@Z 000000018004a578     crop_worker.obj
 0002:0001c580       $ip2state$?resize@?$CImg@E@cimg_library@@QEAAAEAU12@HHHHHIMMMM@Z 000000018004a580     resize_worker.obj
 0002:0001c598       $unwind$?move_to@?$CImg@E@cimg_library@@QEAAAEAU12@AEAU12@@Z 000000018004a598     resize_worker.obj
 0002:0001c598       $unwind$??$assign@M@?$CImg@E@cimg_library@@QEAAAEAU01@QEBMIIII@Z 000000018004a598     resize_worker.obj
 0002:0001c5a4       $unwind$?get_resize@?$CImg@E@cimg_library@@QEBA?AU12@HHHHHIMMMM@Z 000000018004a5a4     resize_worker.obj
 0002:0001c5e8       $stateUnwindMap$?get_resize@?$CImg@E@cimg_library@@QEBA?AU12@HHHHHIMMMM@Z 000000018004a5e8     resize_worker.obj
 0002:0001c910       $ip2state$?get_resize@?$CImg@E@cimg_library@@QEBA?AU12@HHHHHIMMMM@Z 000000018004a910     resize_worker.obj
 0002:0001cf80       $unwind$raise$fin$0        000000018004af80     LIBCMT:winsig.obj
 0002:0001cf80       $unwind$?dtor$72@?0??get_resize@?$CImg@E@cimg_library@@QEBA?AU12@HHHHHIMMMM@Z@4HA 000000018004af80     resize_worker.obj
 0002:0001cf80       $unwind$__DllMainCRTStartup$filt$0 000000018004af80     LIBCMT:dllcrt0.obj
 0002:0001cf80       $unwind$?dtor$71@?0??get_resize@?$CImg@E@cimg_library@@QEBA?AU12@HHHHHIMMMM@Z@4HA 000000018004af80     resize_worker.obj
 0002:0001cf80       $unwind$_IsNonwritableInCurrentImage$filt$0 000000018004af80     LIBCMT:pesect.obj
 0002:0001cf80       $unwind$?dtor$50@?0??get_resize@?$CImg@E@cimg_library@@QEBA?AU12@HHHHHIMMMM@Z@4HA 000000018004af80     resize_worker.obj
 0002:0001cf80       $unwind$__FrameUnwindToState$fin$1 000000018004af80     LIBCMT:frame.obj
 0002:0001cf80       $unwind$?dtor$49@?0??get_resize@?$CImg@E@cimg_library@@QEBA?AU12@HHHHHIMMMM@Z@4HA 000000018004af80     resize_worker.obj
 0002:0001cf80       $unwind$_fcloseall$fin$0   000000018004af80     LIBCMT:closeall.obj
 0002:0001cf80       $unwind$?dtor$73@?0??get_resize@?$CImg@E@cimg_library@@QEBA?AU12@HHHHHIMMMM@Z@4HA 000000018004af80     resize_worker.obj
 0002:0001cf80       $unwind$__lock_fhandle$fin$0 000000018004af80     LIBCMT:osfinfo.obj
 0002:0001cf80       $unwind$?dtor$36@?0??get_resize@?$CImg@E@cimg_library@@QEBA?AU12@HHHHHIMMMM@Z@4HA 000000018004af80     resize_worker.obj
 0002:0001cf80       $unwind$_ioinit$fin$0      000000018004af80     LIBCMT:ioinit.obj
 0002:0001cf80       $unwind$?dtor$51@?0??get_resize@?$CImg@E@cimg_library@@QEBA?AU12@HHHHHIMMMM@Z@4HA 000000018004af80     resize_worker.obj
 0002:0001cf80       $unwind$?dtor$74@?0??get_resize@?$CImg@E@cimg_library@@QEBA?AU12@HHHHHIMMMM@Z@4HA 000000018004af80     resize_worker.obj
 0002:0001cf80       $unwind$_lseeki64$fin$0    000000018004af80     LIBCMT:lseeki64.obj
 0002:0001cf80       $unwind$_alloc_osfhnd$fin$1 000000018004af80     LIBCMT:osfinfo.obj
 0002:0001cf80       $unwind$?dtor$75@?0??get_resize@?$CImg@E@cimg_library@@QEBA?AU12@HHHHHIMMMM@Z@4HA 000000018004af80     resize_worker.obj
 0002:0001cf80       $unwind$?dtor$0@?0??get_resize@?$CImg@E@cimg_library@@QEBA?AU12@HHHHHIMMMM@Z@4HA 000000018004af80     resize_worker.obj
 0002:0001cf80       $unwind$?dtor$56@?0??get_resize@?$CImg@E@cimg_library@@QEBA?AU12@HHHHHIMMMM@Z@4HA 000000018004af80     resize_worker.obj
 0002:0001cf80       $unwind$?dtor$55@?0??get_resize@?$CImg@E@cimg_library@@QEBA?AU12@HHHHHIMMMM@Z@4HA 000000018004af80     resize_worker.obj
 0002:0001cf80       $unwind$?dtor$54@?0??get_resize@?$CImg@E@cimg_library@@QEBA?AU12@HHHHHIMMMM@Z@4HA 000000018004af80     resize_worker.obj
 0002:0001cf80       $unwind$__FrameUnwindToState$filt$0 000000018004af80     LIBCMT:frame.obj
 0002:0001cf80       $unwind$?dtor$37@?0??get_resize@?$CImg@E@cimg_library@@QEBA?AU12@HHHHHIMMMM@Z@4HA 000000018004af80     resize_worker.obj
 0002:0001cf80       $unwind$?dtor$76@?0??get_resize@?$CImg@E@cimg_library@@QEBA?AU12@HHHHHIMMMM@Z@4HA 000000018004af80     resize_worker.obj
 0002:0001cf80       $unwind$?dtor$53@?0??get_resize@?$CImg@E@cimg_library@@QEBA?AU12@HHHHHIMMMM@Z@4HA 000000018004af80     resize_worker.obj
 0002:0001cf80       $unwind$fclose$fin$0       000000018004af80     LIBCMT:fclose.obj
 0002:0001cf80       $unwind$_commit$fin$0      000000018004af80     LIBCMT:commit.obj
 0002:0001cf80       $unwind$_CRT_INIT$fin$0    000000018004af80     LIBCMT:dllcrt0.obj
 0002:0001cf80       $unwind$?dtor$77@?0??get_resize@?$CImg@E@cimg_library@@QEBA?AU12@HHHHHIMMMM@Z@4HA 000000018004af80     resize_worker.obj
 0002:0001cf80       $unwind$?dtor$33@?0??get_resize@?$CImg@E@cimg_library@@QEBA?AU12@HHHHHIMMMM@Z@4HA 000000018004af80     resize_worker.obj
 0002:0001cf80       $unwind$?fin$0@?0??_Type_info_dtor@type_info@@CAXPEAV1@@Z@4HA 000000018004af80     LIBCMT:typname.obj
 0002:0001cf80       $unwind$?dtor$78@?0??get_resize@?$CImg@E@cimg_library@@QEBA?AU12@HHHHHIMMMM@Z@4HA 000000018004af80     resize_worker.obj
 0002:0001cf80       $unwind$?dtor$40@?0??get_resize@?$CImg@E@cimg_library@@QEBA?AU12@HHHHHIMMMM@Z@4HA 000000018004af80     resize_worker.obj
 0002:0001cf80       $unwind$_onexit$fin$0      000000018004af80     LIBCMT:onexit.obj
 0002:0001cf80       $unwind$_write$fin$0       000000018004af80     LIBCMT:write.obj
 0002:0001cf80       $unwind$_freefls$fin$1     000000018004af80     LIBCMT:tidtable.obj
 0002:0001cf80       $unwind$?dtor$96@?0??get_resize@?$CImg@E@cimg_library@@QEBA?AU12@HHHHHIMMMM@Z@4HA 000000018004af80     resize_worker.obj
 0002:0001cf80       $unwind$_freefls$fin$0     000000018004af80     LIBCMT:tidtable.obj
 0002:0001cf80       $unwind$_close$fin$0       000000018004af80     LIBCMT:close.obj
 0002:0001cf80       $unwind$fflush$fin$0       000000018004af80     LIBCMT:fflush.obj
 0002:0001cf80       $unwind$?dtor$52@?0??get_resize@?$CImg@E@cimg_library@@QEBA?AU12@HHHHHIMMMM@Z@4HA 000000018004af80     resize_worker.obj
 0002:0001cf80       $unwind$_ctrlfp$filt$0     000000018004af80     LIBCMT:fpctrl.obj
 0002:0001cf80       $unwind$?dtor$98@?0??get_resize@?$CImg@E@cimg_library@@QEBA?AU12@HHHHHIMMMM@Z@4HA 000000018004af80     resize_worker.obj
 0002:0001cf80       $unwind$?dtor$34@?0??get_resize@?$CImg@E@cimg_library@@QEBA?AU12@HHHHHIMMMM@Z@4HA 000000018004af80     resize_worker.obj
 0002:0001cf80       $unwind$?dtor$39@?0??get_resize@?$CImg@E@cimg_library@@QEBA?AU12@HHHHHIMMMM@Z@4HA 000000018004af80     resize_worker.obj
 0002:0001cf80       $unwind$getenv$fin$0       000000018004af80     LIBCMT:getenv.obj
 0002:0001cf80       $unwind$_mtinitlocknum$fin$0 000000018004af80     LIBCMT:mlock.obj
 0002:0001cf80       $unwind$?dtor$93@?0??get_resize@?$CImg@E@cimg_library@@QEBA?AU12@HHHHHIMMMM@Z@4HA 000000018004af80     resize_worker.obj
 0002:0001cf80       $unwind$?dtor$0@?0??get_crop@?$CImg@E@cimg_library@@QEBA?AU12@HHHHHHHH_N@Z@4HA 000000018004af80     resize_worker.obj
 0002:0001cf80       $unwind$__CxxCallCatchBlock$filt$0 000000018004af80     LIBCMT:frame.obj
 0002:0001cf80       $unwind$?dtor$0@?0??get_rotate@?$CImg@E@cimg_library@@QEBA?AU12@MII@Z@4HA 000000018004af80     rotate_worker.obj
 0002:0001cf80       $unwind$flsall$fin$0       000000018004af80     LIBCMT:fflush.obj
 0002:0001cf80       $unwind$__DestructExceptionObject$filt$0 000000018004af80     LIBCMT:frame.obj
 0002:0001cf80       $unwind$flsall$fin$1       000000018004af80     LIBCMT:fflush.obj
 0002:0001cf80       $unwind$_initptd$fin$1     000000018004af80     LIBCMT:tidtable.obj
 0002:0001cf80       $unwind$?dtor$94@?0??get_resize@?$CImg@E@cimg_library@@QEBA?AU12@HHHHHIMMMM@Z@4HA 000000018004af80     resize_worker.obj
 0002:0001cf80       $unwind$doexit$fin$0       000000018004af80     LIBCMT:crt0dat.obj
 0002:0001cf80       $unwind$_initptd$fin$0     000000018004af80     LIBCMT:tidtable.obj
 0002:0001cf80       $unwind$__updatetlocinfo$fin$0 000000018004af80     LIBCMT:localref.obj
 0002:0001cf80       $unwind$?dtor$35@?0??get_resize@?$CImg@E@cimg_library@@QEBA?AU12@HHHHHIMMMM@Z@4HA 000000018004af80     resize_worker.obj
 0002:0001cf80       $unwind$__updatetmbcinfo$fin$0 000000018004af80     LIBCMT:mbctype.obj
 0002:0001cf80       $unwind$_setmbcp$fin$0     000000018004af80     LIBCMT:mbctype.obj
 0002:0001cf80       $unwind$_fsopen$fin$0      000000018004af80     LIBCMT:fopen.obj
 0002:0001cf80       $unwind$_alloc_osfhnd$fin$0 000000018004af80     LIBCMT:osfinfo.obj
 0002:0001cf80       $unwind$?dtor$38@?0??get_resize@?$CImg@E@cimg_library@@QEBA?AU12@HHHHHIMMMM@Z@4HA 000000018004af80     resize_worker.obj
 0002:0001cf80       $unwind$_locterm$fin$0     000000018004af80     LIBCMT:wsetloca.obj
 0002:0001cf80       $unwind$?dtor$95@?0??get_resize@?$CImg@E@cimg_library@@QEBA?AU12@HHHHHIMMMM@Z@4HA 000000018004af80     resize_worker.obj
 0002:0001cf80       $unwind$_getstream$fin$0   000000018004af80     LIBCMT:stream.obj
 0002:0001cf80       $unwind$fprintf$fin$0      000000018004af80     LIBCMT:fprintf.obj
 0002:0001cf80       $unwind$?dtor$99@?0??get_resize@?$CImg@E@cimg_library@@QEBA?AU12@HHHHHIMMMM@Z@4HA 000000018004af80     resize_worker.obj
 0002:0001cf80       $unwind$fwprintf$fin$0     000000018004af80     LIBCMT:fwprintf.obj
 0002:0001cf80       $unwind$?dtor$100@?0??get_resize@?$CImg@E@cimg_library@@QEBA?AU12@HHHHHIMMMM@Z@4HA 000000018004af80     resize_worker.obj
 0002:0001cf80       $unwind$setvbuf$fin$0      000000018004af80     LIBCMT:setvbuf.obj
 0002:0001cf80       $unwind$?dtor$97@?0??get_resize@?$CImg@E@cimg_library@@QEBA?AU12@HHHHHIMMMM@Z@4HA 000000018004af80     resize_worker.obj
 0002:0001cf88       $unwind$??0?$CImg@M@cimg_library@@QEAA@IIII@Z 000000018004af88     resize_worker.obj
 0002:0001cf9c       $tryMap$??0?$CImg@M@cimg_library@@QEAA@IIII@Z 000000018004af9c     resize_worker.obj
 0002:0001cfb0       $handlerMap$0$??0?$CImg@M@cimg_library@@QEAA@IIII@Z 000000018004afb0     resize_worker.obj
 0002:0001cfc8       $ip2state$??0?$CImg@M@cimg_library@@QEAA@IIII@Z 000000018004afc8     resize_worker.obj
 0002:0001cff0       $unwind$?catch$0@?0???0?$CImg@M@cimg_library@@QEAA@IIII@Z@4HA 000000018004aff0     resize_worker.obj
 0002:0001d00c       $unwind$??0?$CImg@M@cimg_library@@QEAA@IIIIAEBM@Z 000000018004b00c     resize_worker.obj
 0002:0001d020       $tryMap$??0?$CImg@M@cimg_library@@QEAA@IIIIAEBM@Z 000000018004b020     resize_worker.obj
 0002:0001d034       $handlerMap$0$??0?$CImg@M@cimg_library@@QEAA@IIIIAEBM@Z 000000018004b034     resize_worker.obj
 0002:0001d048       $ip2state$??0?$CImg@M@cimg_library@@QEAA@IIIIAEBM@Z 000000018004b048     resize_worker.obj
 0002:0001d070       $unwind$?catch$0@?0???0?$CImg@M@cimg_library@@QEAA@IIIIAEBM@Z@4HA 000000018004b070     resize_worker.obj
 0002:0001d08c       $unwind$??0?$CImg@E@cimg_library@@QEAA@IIIIAEBE@Z 000000018004b08c     resize_worker.obj
 0002:0001d0a0       $tryMap$??0?$CImg@E@cimg_library@@QEAA@IIIIAEBE@Z 000000018004b0a0     resize_worker.obj
 0002:0001d0b4       $handlerMap$0$??0?$CImg@E@cimg_library@@QEAA@IIIIAEBE@Z 000000018004b0b4     resize_worker.obj
 0002:0001d0c8       $ip2state$??0?$CImg@E@cimg_library@@QEAA@IIIIAEBE@Z 000000018004b0c8     resize_worker.obj
 0002:0001d0f0       $unwind$?catch$0@?0???0?$CImg@E@cimg_library@@QEAA@IIIIAEBE@Z@4HA 000000018004b0f0     resize_worker.obj
 0002:0001d10c       $unwind$?assign@?$CImg@E@cimg_library@@QEAAAEAU12@IIII@Z 000000018004b10c     resize_worker.obj
 0002:0001d128       $tryMap$?assign@?$CImg@E@cimg_library@@QEAAAEAU12@IIII@Z 000000018004b128     resize_worker.obj
 0002:0001d13c       $handlerMap$0$?assign@?$CImg@E@cimg_library@@QEAAAEAU12@IIII@Z 000000018004b13c     resize_worker.obj
 0002:0001d150       $ip2state$?assign@?$CImg@E@cimg_library@@QEAAAEAU12@IIII@Z 000000018004b150     resize_worker.obj
 0002:0001d178       $unwind$?catch$0@?0??assign@?$CImg@E@cimg_library@@QEAAAEAU12@IIII@Z@4HA 000000018004b178     resize_worker.obj
 0002:0001d194       $unwind$_fassign_l         000000018004b194     LIBCMT:cvt.obj
 0002:0001d194       $unwind$??H?$CImg@E@cimg_library@@QEBA?AU01@XZ 000000018004b194     resize_worker.obj
 0002:0001d19c       $unwind$floor              000000018004b19c     LIBCMT:floor.obj
 0002:0001d19c       $unwind$_sincosf_special   000000018004b19c     LIBCMT:sincos_special.obj
 0002:0001d19c       $unwind$?_cimg_lanczos@?$CImg@E@cimg_library@@SAMM@Z 000000018004b19c     resize_worker.obj
 0002:0001d19c       $unwind$_sincos_special    000000018004b19c     LIBCMT:sincos_special.obj
 0002:0001d1a4       $chain$2$?_cimg_lanczos@?$CImg@E@cimg_library@@SAMM@Z 000000018004b1a4     resize_worker.obj
 0002:0001d1c0       $chain$3$?_cimg_lanczos@?$CImg@E@cimg_library@@SAMM@Z 000000018004b1c0     resize_worker.obj
 0002:0001d1d0       $unwind$?get_crop@?$CImg@E@cimg_library@@QEBA?AU12@HHHHHHHH_N@Z 000000018004b1d0     resize_worker.obj
 0002:0001d1f0       $stateUnwindMap$?get_crop@?$CImg@E@cimg_library@@QEBA?AU12@HHHHHHHH_N@Z 000000018004b1f0     resize_worker.obj
 0002:0001d1f8       $ip2state$?get_crop@?$CImg@E@cimg_library@@QEBA?AU12@HHHHHHHH_N@Z 000000018004b1f8     resize_worker.obj
 0002:0001d208       $unwind$?draw_image@?$CImg@E@cimg_library@@QEAAAEAU12@HHHHAEBU12@M@Z 000000018004b208     resize_worker.obj
 0002:0001d234       $stateUnwindMap$?draw_image@?$CImg@E@cimg_library@@QEAAAEAU12@HHHHAEBU12@M@Z 000000018004b234     resize_worker.obj
 0002:0001d240       $ip2state$?draw_image@?$CImg@E@cimg_library@@QEAAAEAU12@HHHHAEBU12@M@Z 000000018004b240     resize_worker.obj
 0002:0001d258       $unwind$??0?$CImg@I@cimg_library@@QEAA@IIII@Z 000000018004b258     resize_worker.obj
 0002:0001d26c       $tryMap$??0?$CImg@I@cimg_library@@QEAA@IIII@Z 000000018004b26c     resize_worker.obj
 0002:0001d280       $handlerMap$0$??0?$CImg@I@cimg_library@@QEAA@IIII@Z 000000018004b280     resize_worker.obj
 0002:0001d298       $ip2state$??0?$CImg@I@cimg_library@@QEAA@IIII@Z 000000018004b298     resize_worker.obj
 0002:0001d2c0       $unwind$?catch$0@?0???0?$CImg@I@cimg_library@@QEAA@IIII@Z@4HA 000000018004b2c0     resize_worker.obj
 0002:0001d2d4       $unwind$??0?$CImg@E@cimg_library@@QEAA@AEBU01@_N@Z 000000018004b2d4     resize_worker.obj
 0002:0001d2f0       $tryMap$??0?$CImg@E@cimg_library@@QEAA@AEBU01@_N@Z 000000018004b2f0     resize_worker.obj
 0002:0001d304       $handlerMap$0$??0?$CImg@E@cimg_library@@QEAA@AEBU01@_N@Z 000000018004b304     resize_worker.obj
 0002:0001d318       $ip2state$??0?$CImg@E@cimg_library@@QEAA@AEBU01@_N@Z 000000018004b318     resize_worker.obj
 0002:0001d340       $unwind$?catch$0@?0???0?$CImg@E@cimg_library@@QEAA@AEBU01@_N@Z@4HA 000000018004b340     resize_worker.obj
 0002:0001d35c       $unwind$?assign@?$CImg@E@cimg_library@@QEAAAEAU12@QEBEIIII@Z 000000018004b35c     resize_worker.obj
 0002:0001d37c       $tryMap$?assign@?$CImg@E@cimg_library@@QEAAAEAU12@QEBEIIII@Z 000000018004b37c     resize_worker.obj
 0002:0001d390       $handlerMap$0$?assign@?$CImg@E@cimg_library@@QEAAAEAU12@QEBEIIII@Z 000000018004b390     resize_worker.obj
 0002:0001d3a8       $ip2state$?assign@?$CImg@E@cimg_library@@QEAAAEAU12@QEBEIIII@Z 000000018004b3a8     resize_worker.obj
 0002:0001d3d0       $unwind$?catch$0@?0??assign@?$CImg@E@cimg_library@@QEAAAEAU12@QEBEIIII@Z@4HA 000000018004b3d0     resize_worker.obj
 0002:0001d3ec       $unwind$?assign@?$CImg@E@cimg_library@@QEAAAEAU12@QEBEIIII_N@Z 000000018004b3ec     resize_worker.obj
 0002:0001d404       $unwind$?Execute@RotateWorker@@UEAAXXZ 000000018004b404     rotate_worker.obj
 0002:0001d434       $stateUnwindMap$?Execute@RotateWorker@@UEAAXXZ 000000018004b434     rotate_worker.obj
 0002:0001d474       $tryMap$?Execute@RotateWorker@@UEAAXXZ 000000018004b474     rotate_worker.obj
 0002:0001d49c       $handlerMap$0$?Execute@RotateWorker@@UEAAXXZ 000000018004b49c     rotate_worker.obj
 0002:0001d4b0       $handlerMap$1$?Execute@RotateWorker@@UEAAXXZ 000000018004b4b0     rotate_worker.obj
 0002:0001d4d0       $ip2state$?Execute@RotateWorker@@UEAAXXZ 000000018004b4d0     rotate_worker.obj
 0002:0001d548       $unwind$?catch$1@?0??Execute@RotateWorker@@UEAAXXZ@4HA 000000018004b548     rotate_worker.obj
 0002:0001d548       $unwind$?catch$0@?0??Execute@RotateWorker@@UEAAXXZ@4HA 000000018004b548     rotate_worker.obj
 0002:0001d558       $unwind$?fillC@?$CImg@E@cimg_library@@QEAAAEAU12@IIIHZZ 000000018004b558     rotate_worker.obj
 0002:0001d560       $chain$0$?fillC@?$CImg@E@cimg_library@@QEAAAEAU12@IIIHZZ 000000018004b560     rotate_worker.obj
 0002:0001d574       $chain$1$?fillC@?$CImg@E@cimg_library@@QEAAAEAU12@IIIHZZ 000000018004b574     rotate_worker.obj
 0002:0001d584       $unwind$?get_rotate@?$CImg@E@cimg_library@@QEBA?AU12@MII@Z 000000018004b584     rotate_worker.obj
 0002:0001d5c8       $stateUnwindMap$?get_rotate@?$CImg@E@cimg_library@@QEBA?AU12@MII@Z 000000018004b5c8     rotate_worker.obj
 0002:0001d5d8       $ip2state$?get_rotate@?$CImg@E@cimg_library@@QEBA?AU12@MII@Z 000000018004b5d8     rotate_worker.obj
 0002:0001d600       $unwind$_setmode_nolock    000000018004b600     LIBCMT:setmode.obj
 0002:0001d600       $unwind$?_linear_atXY@?$CImg@E@cimg_library@@QEBAMMMHH@Z 000000018004b600     rotate_worker.obj
 0002:0001d60c       $unwind$?Execute@BlurWorker@@UEAAXXZ 000000018004b60c     blur_worker.obj
 0002:0001d614       $unwind$?vanvliet@?$CImg@E@cimg_library@@QEAAAEAU12@MID_N@Z 000000018004b614     blur_worker.obj
 0002:0001d624       $chain$3$?vanvliet@?$CImg@E@cimg_library@@QEAAAEAU12@MID_N@Z 000000018004b624     blur_worker.obj
 0002:0001d644       $chain$4$?vanvliet@?$CImg@E@cimg_library@@QEAAAEAU12@MID_N@Z 000000018004b644     blur_worker.obj
 0002:0001d660       $chain$5$?vanvliet@?$CImg@E@cimg_library@@QEAAAEAU12@MID_N@Z 000000018004b660     blur_worker.obj
 0002:0001d670       $unwind$?_cimg_recursive_apply@?$CImg@E@cimg_library@@SAXPEAEQEBNHKI_N@Z 000000018004b670     blur_worker.obj
 0002:0001d6ac       $unwind$?Execute@CropWorker@@UEAAXXZ 000000018004b6ac     crop_worker.obj
 0002:0001d6bc       $stateUnwindMap$?Execute@CropWorker@@UEAAXXZ 000000018004b6bc     crop_worker.obj
 0002:0001d6d4       $tryMap$?Execute@CropWorker@@UEAAXXZ 000000018004b6d4     crop_worker.obj
 0002:0001d6e8       $handlerMap$0$?Execute@CropWorker@@UEAAXXZ 000000018004b6e8     crop_worker.obj
 0002:0001d700       $ip2state$?Execute@CropWorker@@UEAAXXZ 000000018004b700     crop_worker.obj
 0002:0001d738       $unwind$?catch$0@?0??Execute@CropWorker@@UEAAXXZ@4HA 000000018004b738     crop_worker.obj
 0002:0001d748       $unwind$?crop@?$CImg@E@cimg_library@@QEAAAEAU12@HHHHHHHH_N@Z 000000018004b748     crop_worker.obj
 0002:0001d760       $ip2state$?crop@?$CImg@E@cimg_library@@QEAAAEAU12@HHHHHHHH_N@Z 000000018004b760     crop_worker.obj
 0002:0001d778       $unwind$?Execute@MirrorWorker@@UEAAXXZ 000000018004b778     mirror_worker.obj
 0002:0001d790       $stateUnwindMap$?Execute@MirrorWorker@@UEAAXXZ 000000018004b790     mirror_worker.obj
 0002:0001d7b0       $tryMap$?Execute@MirrorWorker@@UEAAXXZ 000000018004b7b0     mirror_worker.obj
 0002:0001d7c4       $handlerMap$0$?Execute@MirrorWorker@@UEAAXXZ 000000018004b7c4     mirror_worker.obj
 0002:0001d7e0       $ip2state$?Execute@MirrorWorker@@UEAAXXZ 000000018004b7e0     mirror_worker.obj
 0002:0001d820       $unwind$?catch$0@?0??Execute@MirrorWorker@@UEAAXXZ@4HA 000000018004b820     mirror_worker.obj
 0002:0001d830       $unwind$?append@?$basic_string@DU?$char_traits@D@std@@V?$allocator@D@2@@std@@QEAAAEAV12@AEBV12@_K1@Z 000000018004b830     mirror_worker.obj
 0002:0001d844       $chain$0$?append@?$basic_string@DU?$char_traits@D@std@@V?$allocator@D@2@@std@@QEAAAEAV12@AEBV12@_K1@Z 000000018004b844     mirror_worker.obj
 0002:0001d858       $chain$1$?append@?$basic_string@DU?$char_traits@D@std@@V?$allocator@D@2@@std@@QEAAAEAV12@AEBV12@_K1@Z 000000018004b858     mirror_worker.obj
 0002:0001d868       $chain$2$?append@?$basic_string@DU?$char_traits@D@std@@V?$allocator@D@2@@std@@QEAAAEAV12@AEBV12@_K1@Z 000000018004b868     mirror_worker.obj
 0002:0001d87c       $unwind$?append@?$basic_string@DU?$char_traits@D@std@@V?$allocator@D@2@@std@@QEAAAEAV12@PEBD_K@Z 000000018004b87c     mirror_worker.obj
 0002:0001d88c       $chain$0$?append@?$basic_string@DU?$char_traits@D@std@@V?$allocator@D@2@@std@@QEAAAEAV12@PEBD_K@Z 000000018004b88c     mirror_worker.obj
 0002:0001d8a0       $chain$1$?append@?$basic_string@DU?$char_traits@D@std@@V?$allocator@D@2@@std@@QEAAAEAV12@PEBD_K@Z 000000018004b8a0     mirror_worker.obj
 0002:0001d8b0       $chain$2$?append@?$basic_string@DU?$char_traits@D@std@@V?$allocator@D@2@@std@@QEAAAEAV12@PEBD_K@Z 000000018004b8b0     mirror_worker.obj
 0002:0001d8c4       $unwind$?mirror@?$CImg@E@cimg_library@@QEAAAEAU12@D@Z 000000018004b8c4     mirror_worker.obj
 0002:0001d8d0       $chain$4$?mirror@?$CImg@E@cimg_library@@QEAAAEAU12@D@Z 000000018004b8d0     mirror_worker.obj
 0002:0001d8f4       $chain$5$?mirror@?$CImg@E@cimg_library@@QEAAAEAU12@D@Z 000000018004b8f4     mirror_worker.obj
 0002:0001d904       $chain$6$?mirror@?$CImg@E@cimg_library@@QEAAAEAU12@D@Z 000000018004b904     mirror_worker.obj
 0002:0001d928       $unwind$?Execute@PadWorker@@UEAAXXZ 000000018004b928     pad_worker.obj
 0002:0001d944       $stateUnwindMap$?Execute@PadWorker@@UEAAXXZ 000000018004b944     pad_worker.obj
 0002:0001d964       $tryMap$?Execute@PadWorker@@UEAAXXZ 000000018004b964     pad_worker.obj
 0002:0001d978       $handlerMap$0$?Execute@PadWorker@@UEAAXXZ 000000018004b978     pad_worker.obj
 0002:0001d990       $ip2state$?Execute@PadWorker@@UEAAXXZ 000000018004b990     pad_worker.obj
 0002:0001d9d0       $unwind$?catch$0@?0??Execute@PadWorker@@UEAAXXZ@4HA 000000018004b9d0     pad_worker.obj
 0002:0001d9e0       $unwind$?Execute@SharpenWorker@@UEAAXXZ 000000018004b9e0     sharpen_worker.obj
 0002:0001d9f0       $stateUnwindMap$?Execute@SharpenWorker@@UEAAXXZ 000000018004b9f0     sharpen_worker.obj
 0002:0001da08       $tryMap$?Execute@SharpenWorker@@UEAAXXZ 000000018004ba08     sharpen_worker.obj
 0002:0001da1c       $handlerMap$0$?Execute@SharpenWorker@@UEAAXXZ 000000018004ba1c     sharpen_worker.obj
 0002:0001da30       $ip2state$?Execute@SharpenWorker@@UEAAXXZ 000000018004ba30     sharpen_worker.obj
 0002:0001da68       $unwind$?catch$0@?0??Execute@SharpenWorker@@UEAAXXZ@4HA 000000018004ba68     sharpen_worker.obj
 0002:0001da78       $unwind$?sharpen@?$CImg@E@cimg_library@@QEAAAEAU12@M_NMMM@Z 000000018004ba78     sharpen_worker.obj
 0002:0001dac8       $stateUnwindMap$?sharpen@?$CImg@E@cimg_library@@QEAAAEAU12@M_NMMM@Z 000000018004bac8     sharpen_worker.obj
 0002:0001db78       $ip2state$?sharpen@?$CImg@E@cimg_library@@QEAAAEAU12@M_NMMM@Z 000000018004bb78     sharpen_worker.obj
 0002:0001dba0       $unwind$?max@?$CImg@M@cimg_library@@QEAAAEAMXZ 000000018004bba0     sharpen_worker.obj
 0002:0001dba8       $unwind$??$?YE@?$CImg@M@cimg_library@@QEAAAEAU01@AEBU?$CImg@E@1@@Z 000000018004bba8     sharpen_worker.obj
 0002:0001dbc4       $stateUnwindMap$??$?YE@?$CImg@M@cimg_library@@QEAAAEAU01@AEBU?$CImg@E@1@@Z 000000018004bbc4     sharpen_worker.obj
 0002:0001dbd0       $ip2state$??$?YE@?$CImg@M@cimg_library@@QEAAAEAU01@AEBU?$CImg@E@1@@Z 000000018004bbd0     sharpen_worker.obj
 0002:0001dbe8       $unwind$?Execute@HSLAWorker@@UEAAXXZ 000000018004bbe8     hsla_worker.obj
 0002:0001dc18       $unwind$?rgb_to_hsl@@YAXEEEPEAM00@Z 000000018004bc18     hsla_worker.obj
 0002:0001dc2c       $unwind$?hsl_to_rgb@@YAXMMMPEAE00@Z 000000018004bc2c     hsla_worker.obj
 0002:0001dc48       $unwind$?Execute@OpacifyWorker@@UEAAXXZ 000000018004bc48     opacify_worker.obj
 0002:0001dc58       $unwind$??0PasteWorker@@QEAA@_K0AEAV?$Local@VObject@v8@@@v8@@00PEAU?$CImg@E@cimg_library@@PEAVCallback@Nan@@@Z 000000018004bc58     paste_worker.obj
 0002:0001dc74       $stateUnwindMap$??0PasteWorker@@QEAA@_K0AEAV?$Local@VObject@v8@@@v8@@00PEAU?$CImg@E@cimg_library@@PEAVCallback@Nan@@@Z 000000018004bc74     paste_worker.obj
 0002:0001dc88       $ip2state$??0PasteWorker@@QEAA@_K0AEAV?$Local@VObject@v8@@@v8@@00PEAU?$CImg@E@cimg_library@@PEAVCallback@Nan@@@Z 000000018004bc88     paste_worker.obj
 0002:0001dcb0       $unwind$?Execute@PasteWorker@@UEAAXXZ 000000018004bcb0     paste_worker.obj
 0002:0001dcdc       $stateUnwindMap$?Execute@PasteWorker@@UEAAXXZ 000000018004bcdc     paste_worker.obj
 0002:0001dcf4       $tryMap$?Execute@PasteWorker@@UEAAXXZ 000000018004bcf4     paste_worker.obj
 0002:0001dd08       $handlerMap$0$?Execute@PasteWorker@@UEAAXXZ 000000018004bd08     paste_worker.obj
 0002:0001dd20       $ip2state$?Execute@PasteWorker@@UEAAXXZ 000000018004bd20     paste_worker.obj
 0002:0001dd58       $unwind$?catch$0@?0??Execute@PasteWorker@@UEAAXXZ@4HA 000000018004bd58     paste_worker.obj
 0002:0001dd68       $unwind$?Execute@SetPixelWorker@@UEAAXXZ 000000018004bd68     setpixel_worker.obj
 0002:0001dd70       xdata                      000000018004bd70     node:node.exe
 0002:0001dd78       $unwind$?_Xlength_error@std@@YAXPEBD@Z 000000018004bd78     libcpmt:xthrow.obj
 0002:0001dd78       $unwind$?_Xout_of_range@std@@YAXPEBD@Z 000000018004bd78     libcpmt:xthrow.obj
 0002:0001dd78       $unwind$__initconout       000000018004bd78     libcpmt:xthrow.obj
 0002:0001dd78       $unwind$?_Xbad_alloc@std@@YAXXZ 000000018004bd78     libcpmt:xthrow.obj
 0002:0001dd78       $unwind$_cfltcvt           000000018004bd78     libcpmt:xthrow.obj
 0002:0001dd78       $unwind$_raise_exc         000000018004bd78     libcpmt:xthrow.obj
 0002:0001dd78       $unwind$_raise_excf        000000018004bd78     libcpmt:xthrow.obj
 0002:0001dd80       $xdatasym                  000000018004bd80     LIBCMT:amdsecgs.obj
 0002:0001dd88       $xdatasym                  000000018004bd88     LIBCMT:memcpy.obj
 0002:0001dd8c       $unwind$_onexit            000000018004bd8c     LIBCMT:onexit.obj
 0002:0001ddbc       $unwind$_vsnprintf_s_l     000000018004bdbc     LIBCMT:vsnprnc.obj
 0002:0001ddd4       $unwind$swprintf           000000018004bdd4     LIBCMT:wassert.obj
 0002:0001dddc       $unwind$_wassert           000000018004bddc     LIBCMT:wassert.obj
 0002:0001de00       $xdatasym                  000000018004be00     LIBCMT:strncpy.obj
 0002:0001de04       $unwind$_fsopen            000000018004be04     LIBCMT:fopen.obj
 0002:0001de40       $unwind$fprintf            000000018004be40     LIBCMT:fprintf.obj
 0002:0001de68       $unwind$getenv             000000018004be68     LIBCMT:getenv.obj
 0002:0001de88       $unwind$_vsnprintf_l       000000018004be88     LIBCMT:vsprintf.obj
 0002:0001de88       $unwind$_vscprintf_helper  000000018004be88     LIBCMT:vsprintf.obj
 0002:0001de9c       $unwind$fclose             000000018004be9c     LIBCMT:fclose.obj
 0002:0001dec0       $unwind$_CRT_INIT          000000018004bec0     LIBCMT:dllcrt0.obj
 0002:0001dee0       $unwind$__DllMainCRTStartup 000000018004bee0     LIBCMT:dllcrt0.obj
 0002:0001df08       $xdatasym                  000000018004bf08     LIBCMT:strlen.obj
 0002:0001df0c       $unwind$_CxxThrowException 000000018004bf0c     LIBCMT:throw.obj
 0002:0001df1c       $unwind$?__FrameUnwindToEmptyState@@YAXPEA_KPEAU_xDISPATCHER_CONTEXT@@PEBU_s_FuncInfo@@@Z 000000018004bf1c     LIBCMT:trnsctrl.obj
 0002:0001df30       $unwind$_UnwindNestedFrames 000000018004bf30     LIBCMT:trnsctrl.obj
 0002:0001df44       $unwind$_CallSETranslator  000000018004bf44     LIBCMT:trnsctrl.obj
 0002:0001df64       $unwind$?_GetRangeOfTrysToCheck@@YAPEBU_s_TryBlockMapEntry@@PEA_KPEBU_s_FuncInfo@@HHPEAI2PEAU_xDISPATCHER_CONTEXT@@@Z 000000018004bf64     LIBCMT:trnsctrl.obj
 0002:0001df64       $unwind$parse_cmdline      000000018004bf64     LIBCMT:trnsctrl.obj
 0002:0001df80       $unwind$?_GetEstablisherFrame@@YAPEA_KPEA_KPEAU_xDISPATCHER_CONTEXT@@PEBU_s_FuncInfo@@0@Z 000000018004bf80     LIBCMT:trnsctrl.obj
 0002:0001df98       $unwind$?_Copy_str@exception@std@@AEAAXPEBD@Z 000000018004bf98     LIBCMT:stdexcpt.obj
 0002:0001dfa8       $unwind$__isa_available_init 000000018004bfa8     LIBCMT:cpu_disp.obj
 0002:0001dfbc       $unwind$?terminate@@YAXXZ  000000018004bfbc     LIBCMT:hooks.obj
 0002:0001dfdc       $unwind$?_inconsistency@@YAXXZ 000000018004bfdc     LIBCMT:hooks.obj
 0002:0001dffc       $unwind$__C_specific_handler 000000018004bffc     LIBCMT:chandler.obj
 0002:0001e018       $unwind$__copy_path_to_wide_string 000000018004c018     LIBCMT:crt0dat.obj
 0002:0001e030       $unwind$doexit             000000018004c030     LIBCMT:crt0dat.obj
 0002:0001e060       $unwind$_ctrlfp            000000018004c060     LIBCMT:fpctrl.obj
 0002:0001e088       $unwind$_call_matherr      000000018004c088     LIBCMT:libm_error.obj
 0002:0001e090       $unwind$_handle_errorf     000000018004c090     LIBCMT:libm_error.obj
 0002:0001e090       $unwind$_handle_error      000000018004c090     LIBCMT:libm_error.obj
 0002:0001e0b0       $unwind$_call_reportfault  000000018004c0b0     LIBCMT:invarg.obj
 0002:0001e0d0       $unwind$_setenvp           000000018004c0d0     LIBCMT:invarg.obj
 0002:0001e0d0       $unwind$_invalid_parameter 000000018004c0d0     LIBCMT:invarg.obj
 0002:0001e0e4       $unwind$_flsbuf            000000018004c0e4     LIBCMT:_flsbuf.obj
 0002:0001e0f8       $unwind$_output_l          000000018004c0f8     LIBCMT:output.obj
 0002:0001e0f8       $unwind$_output_s_l        000000018004c0f8     LIBCMT:output.obj
 0002:0001e120       $xdatasym                  000000018004c120     LIBCMT:memset.obj
 0002:0001e124       $unwind$_fcloseall         000000018004c124     LIBCMT:closeall.obj
 0002:0001e14c       $unwind$fflush             000000018004c14c     LIBCMT:fflush.obj
 0002:0001e170       $unwind$flsall             000000018004c170     LIBCMT:fflush.obj
 0002:0001e1b0       $unwind$_mtinitlocknum     000000018004c1b0     LIBCMT:mlock.obj
 0002:0001e1d8       $unwind$setvbuf            000000018004c1d8     LIBCMT:setvbuf.obj
 0002:0001e204       $unwind$fwprintf           000000018004c204     LIBCMT:fwprintf.obj
 0002:0001e228       $unwind$_vsnprintf_helper  000000018004c228     LIBCMT:vswprnc.obj
 0002:0001e228       $unwind$_vswprintf_helper  000000018004c228     LIBCMT:vswprnc.obj
 0002:0001e240       $unwind$raise              000000018004c240     LIBCMT:winsig.obj
 0002:0001e270       $unwind$__crtMessageBoxW   000000018004c270     LIBCMT:crtmboxw.obj
 0002:0001e28c       $unwind$_NMSG_WRITE        000000018004c28c     LIBCMT:crt0msg.obj
 0002:0001e2b0       $unwind$_getstream         000000018004c2b0     LIBCMT:stream.obj
 0002:0001e2d8       $unwind$_openfile          000000018004c2d8     LIBCMT:_open.obj
 0002:0001e2f0       $xdatasym                  000000018004c2f0     LIBCMT:jmpuwind.obj
 0002:0001e304       $unwind$_stbuf             000000018004c304     LIBCMT:_sftbuf.obj
 0002:0001e304       $unwind$_free_osfhnd       000000018004c304     LIBCMT:_sftbuf.obj
 0002:0001e314       $unwind$_ftbuf             000000018004c314     LIBCMT:_sftbuf.obj
 0002:0001e31c       $unwind$_ioinit            000000018004c31c     LIBCMT:ioinit.obj
 0002:0001e364       $unwind$_freefls           000000018004c364     LIBCMT:tidtable.obj
 0002:0001e398       $unwind$_initptd           000000018004c398     LIBCMT:tidtable.obj
 0002:0001e3cc       $unwind$__wtomb_environ    000000018004c3cc     LIBCMT:wtombenv.obj
 0002:0001e3dc       $unwind$_mbsnbicoll_l      000000018004c3dc     LIBCMT:mbsnbico.obj
 0002:0001e3f8       $xdatasym                  000000018004c3f8     LIBCMT:strcmp.obj
 0002:0001e3fc       $unwind$?_Type_info_dtor@type_info@@CAXPEAV1@@Z 000000018004c3fc     LIBCMT:typname.obj
 0002:0001e41c       $unwind$_close             000000018004c41c     LIBCMT:close.obj
 0002:0001e444       $unwind$__updatetlocinfo   000000018004c444     LIBCMT:localref.obj
 0002:0001e464       $unwind$__updatetmbcinfo   000000018004c464     LIBCMT:mbctype.obj
 0002:0001e488       $unwind$_setmbcp           000000018004c488     LIBCMT:mbctype.obj
 0002:0001e4b8       $unwind$_setmbcp_nolock    000000018004c4b8     LIBCMT:mbctype.obj
 0002:0001e4d8       $unwind$?setSBUpLow@@YAXPEAUthreadmbcinfostruct@@@Z 000000018004c4d8     LIBCMT:mbctype.obj
 0002:0001e4f4       $unwind$_tolower_l         000000018004c4f4     LIBCMT:tolower.obj
 0002:0001e504       $unwind$_locterm           000000018004c504     LIBCMT:wsetloca.obj
 0002:0001e524       $unwind$__security_init_cookie 000000018004c524     LIBCMT:gs_support.obj
 0002:0001e530       $unwind$__crtCaptureCurrentContext 000000018004c530     LIBCMT:winapisupp.obj
 0002:0001e53c       $unwind$__crtCapturePreviousContext 000000018004c53c     LIBCMT:winapisupp.obj
 0002:0001e548       $unwind$__CxxCallCatchBlock 000000018004c548     LIBCMT:frame.obj
 0002:0001e588       $unwind$__CxxCallCatchBlock$fin$1 000000018004c588     LIBCMT:frame.obj
 0002:0001e594       $unwind$__FrameUnwindToState 000000018004c594     LIBCMT:frame.obj
 0002:0001e5d0       $unwind$?FindHandler@@YAXPEAUEHExceptionRecord@@PEA_KPEAU_CONTEXT@@PEAU_xDISPATCHER_CONTEXT@@PEBU_s_FuncInfo@@EH1@Z 000000018004c5d0     LIBCMT:frame.obj
 0002:0001e5ec       $unwind$?CatchIt@@YAXPEAUEHExceptionRecord@@PEA_KPEAU_CONTEXT@@PEAU_xDISPATCHER_CONTEXT@@PEBU_s_FuncInfo@@PEBU_s_HandlerType@@PEBU_s_CatchableType@@PEBU_s_TryBlockMapEntry@@H1EE@Z 000000018004c5ec     LIBCMT:frame.obj
 0002:0001e604       $unwind$__BuildCatchObject 000000018004c604     LIBCMT:frame.obj
 0002:0001e630       $unwind$GetTableIndexFromLocaleName 000000018004c630     LIBCMT:frame.obj
 0002:0001e630       $unwind$_malloc_crt        000000018004c630     LIBCMT:frame.obj
 0002:0001e630       $unwind$_calloc_crt        000000018004c630     LIBCMT:frame.obj
 0002:0001e630       $unwind$__TypeMatch        000000018004c630     LIBCMT:frame.obj
 0002:0001e630       $unwind$__GSHandlerCheck_EH 000000018004c630     LIBCMT:frame.obj
 0002:0001e630       $unwind$_realloc_crt       000000018004c630     LIBCMT:frame.obj
 0002:0001e648       $unwind$?FindHandlerForForeignException@@YAXPEAUEHExceptionRecord@@PEA_KPEAU_CONTEXT@@PEAU_xDISPATCHER_CONTEXT@@PEBU_s_FuncInfo@@HH1@Z 000000018004c648     LIBCMT:frame.obj
 0002:0001e660       $unwind$__DestructExceptionObject 000000018004c660     LIBCMT:frame.obj
 0002:0001e680       $unwind$?IsInExceptionSpec@@YAEPEAUEHExceptionRecord@@PEBU_s_ESTypeList@@@Z 000000018004c680     LIBCMT:frame.obj
 0002:0001e69c       $unwind$__InternalCxxFrameHandler 000000018004c69c     LIBCMT:frame.obj
 0002:0001e6b4       $unwind$__BuildCatchObjectHelper 000000018004c6b4     LIBCMT:frame.obj
 0002:0001e6e4       $unwind$_cftoe2_l          000000018004c6e4     LIBCMT:cvt.obj
 0002:0001e700       $unwind$_cftoe_l           000000018004c700     LIBCMT:cvt.obj
 0002:0001e718       $unwind$_cftoa_l           000000018004c718     LIBCMT:cvt.obj
 0002:0001e734       $unwind$__crtGetEnvironmentStringsA 000000018004c734     LIBCMT:cvt.obj
 0002:0001e734       $unwind$_cftof2_l          000000018004c734     LIBCMT:cvt.obj
 0002:0001e74c       $unwind$_cftof_l           000000018004c74c     LIBCMT:cvt.obj
 0002:0001e764       $unwind$_cftog_l           000000018004c764     LIBCMT:cvt.obj
 0002:0001e77c       $unwind$_IsNonwritableInCurrentImage 000000018004c77c     LIBCMT:pesect.obj
 0002:0001e7a0       $unwind$__crtCompareStringEx 000000018004c7a0     LIBCMT:winapinls.obj
 0002:0001e7a0       $unwind$_sopen_nolock      000000018004c7a0     LIBCMT:winapinls.obj
 0002:0001e7a0       $unwind$__crtLCMapStringEx 000000018004c7a0     LIBCMT:winapinls.obj
 0002:0001e7b0       $xdatasym                  000000018004c7b0     LIBCMT:fpsr.obj
 0002:0001e7b8       $unwind$_raise_exc_ex      000000018004c7b8     LIBCMT:fpexcept.obj
 0002:0001e7cc       $unwind$_write             000000018004c7cc     LIBCMT:write.obj
 0002:0001e7f8       $unwind$_write_nolock      000000018004c7f8     LIBCMT:write.obj
 0002:0001e81c       $unwind$_lseeki64          000000018004c81c     LIBCMT:lseeki64.obj
 0002:0001e848       $unwind$_isleadbyte_l      000000018004c848     LIBCMT:_wctype.obj
 0002:0001e848       $unwind$??2@YAPEAX_K@Z     000000018004c848     LIBCMT:_wctype.obj
 0002:0001e848       $unwind$_forcdecpt_l       000000018004c848     LIBCMT:_wctype.obj
 0002:0001e848       $unwind$isdigit            000000018004c848     LIBCMT:_wctype.obj
 0002:0001e848       $unwind$_cropzeros_l       000000018004c848     LIBCMT:_wctype.obj
 0002:0001e848       $unwind$isleadbyte         000000018004c848     LIBCMT:_wctype.obj
 0002:0001e848       $unwind$?getSystemCP@@YAHH@Z 000000018004c848     LIBCMT:_wctype.obj
 0002:0001e850       $unwind$_wctomb_s_l        000000018004c850     LIBCMT:wctomb.obj
 0002:0001e860       $unwind$_commit            000000018004c860     LIBCMT:commit.obj
 0002:0001e888       $unwind$_woutput_l         000000018004c888     LIBCMT:woutput.obj
 0002:0001e8ac       $unwind$write_multi_char   000000018004c8ac     LIBCMT:woutput.obj
 0002:0001e8ac       $unwind$write_multi_char   000000018004c8ac     LIBCMT:woutput.obj
 0002:0001e8ac       $unwind$write_multi_char   000000018004c8ac     LIBCMT:woutput.obj
 0002:0001e8c0       $unwind$write_string       000000018004c8c0     LIBCMT:woutput.obj
 0002:0001e8c0       $unwind$write_string       000000018004c8c0     LIBCMT:woutput.obj
 0002:0001e8c0       $unwind$_recalloc_crt      000000018004c8c0     LIBCMT:woutput.obj
 0002:0001e8c0       $unwind$write_string       000000018004c8c0     LIBCMT:woutput.obj
 0002:0001e8d8       $unwind$_sopen_helper      000000018004c8d8     LIBCMT:open.obj
 0002:0001e8fc       $unwind$_sopen_helper$fin$0 000000018004c8fc     LIBCMT:open.obj
 0002:0001e8fc       $unwind$_CallSETranslator$filt$0 000000018004c8fc     LIBCMT:open.obj
 0002:0001e904       $unwind$?__SehTransFilter@@YAHPEAU_EXCEPTION_POINTERS@@PEAUEHExceptionRecord@@PEA_KPEAU_CONTEXT@@PEAU_xDISPATCHER_CONTEXT@@PEBU_s_FuncInfo@@PEAH@Z 000000018004c904     LIBCMT:mbsnbicm.obj
 0002:0001e904       $unwind$_mbsnbcmp_l        000000018004c904     LIBCMT:mbsnbicm.obj
 0002:0001e904       $unwind$_strnicmp_l        000000018004c904     LIBCMT:mbsnbicm.obj
 0002:0001e904       $unwind$_mbsnbicmp_l       000000018004c904     LIBCMT:mbsnbicm.obj
 0002:0001e918       $unwind$__crtsetenv        000000018004c918     LIBCMT:setenv.obj
 0002:0001e934       $unwind$_strnicoll_l       000000018004c934     LIBCMT:strnicol.obj
 0002:0001e934       $unwind$__createFile       000000018004c934     LIBCMT:strnicol.obj
 0002:0001e948       $unwind$?__crtCompareStringA_stat@@YAHPEAUlocaleinfo_struct@@PEB_WKPEBDH2HH@Z 000000018004c948     LIBCMT:a_cmp.obj
 0002:0001e968       $unwind$_alloc_osfhnd      000000018004c968     LIBCMT:osfinfo.obj
 0002:0001e9ac       $unwind$_set_osfhnd        000000018004c9ac     LIBCMT:osfinfo.obj
 0002:0001e9c0       $unwind$__lock_fhandle     000000018004c9c0     LIBCMT:osfinfo.obj
 0002:0001e9ec       $unwind$__free_lc_time     000000018004c9ec     LIBCMT:initmon.obj
 0002:0001e9ec       $unwind$__free_lconv_mon   000000018004c9ec     LIBCMT:initmon.obj
 0002:0001e9f4       $unwind$__crtLCMapStringA  000000018004c9f4     LIBCMT:a_map.obj
 0002:0001ea04       $unwind$?__crtLCMapStringA_stat@@YAHPEAUlocaleinfo_struct@@PEB_WKPEBDHPEADHHH@Z 000000018004ca04     LIBCMT:a_map.obj
 0002:0001ea2c       $unwind$__crtCompareStringA 000000018004ca2c     LIBCMT:a_str.obj
 0002:0001ea2c       $unwind$__crtGetStringTypeA 000000018004ca2c     LIBCMT:a_str.obj
 0002:0001ea3c       $unwind$?__crtGetStringTypeA_stat@@YAHPEAUlocaleinfo_struct@@KPEBDHPEAGHH@Z 000000018004ca3c     LIBCMT:a_str.obj
 0002:0001ea64       $unwind$_isctype_l         000000018004ca64     LIBCMT:isctype.obj
 0002:0001ea78       $xdatasym                  000000018004ca78     LIBCMT:memcmp.obj
 0002:0001ea80       $xdatasym                  000000018004ca80     LIBCMT:handlers.obj
 0002:0001ea88       $unwind$strrchr            000000018004ca88     LIBCMT:strrchr.obj
 0002:0001ea88       $unwind$strchr             000000018004ca88     LIBCMT:strrchr.obj
 0002:0001ea90       $unwind$_atodbl_l          000000018004ca90     LIBCMT:atodbl.obj
 0002:0001eaa4       $unwind$__crt_atoflt_l     000000018004caa4     LIBCMT:atodbl.obj
 0002:0001eab8       $unwind$_fltout2           000000018004cab8     LIBCMT:cfout.obj
 0002:0001ead0       $unwind$__dtold            000000018004cad0     LIBCMT:cfout.obj
 0002:0001ead8       $xdatasym                  000000018004cad8     LIBCMT:chkstk.obj
 0002:0001eae0       $unwind$_mbtowc_l          000000018004cae0     LIBCMT:mbtowc.obj
 0002:0001eaf8       $unwind$_putwch_nolock     000000018004caf8     LIBCMT:putwch.obj
 0002:0001eaf8       $unwind$__report_gsfailure 000000018004caf8     LIBCMT:putwch.obj
 0002:0001eb00       $unwind$_fputwc_nolock     000000018004cb00     LIBCMT:fputwc.obj
 0002:0001eb1c       $unwind$_wsopen_nolock     000000018004cb1c     LIBCMT:wopen.obj
 0002:0001eb38       $xdatasym                  000000018004cb38     LIBCMT:strncmp.obj
 0002:0001eb3c       $unwind$_mbschr_l          000000018004cb3c     LIBCMT:mbschr.obj
 0002:0001eb3c       $unwind$?x_ismbbtype_l@@YAHPEAUlocaleinfo_struct@@IHH@Z 000000018004cb3c     LIBCMT:mbschr.obj
 0002:0001eb3c       $unwind$_stricmp_l         000000018004cb3c     LIBCMT:mbschr.obj
 0002:0001eb4c       $unwind$_ld12tod           000000018004cb4c     LIBCMT:intrncvt.obj
 0002:0001eb4c       $unwind$_ld12tof           000000018004cb4c     LIBCMT:intrncvt.obj
 0002:0001eb70       $unwind$__strgtold12_l     000000018004cb70     LIBCMT:strgtold.obj
 0002:0001eb94       $unwind$$I10_OUTPUT        000000018004cb94     LIBCMT:x10fout.obj
 0002:0001ebb8       $unwind$_flswbuf           000000018004cbb8     LIBCMT:_flswbuf.obj
 0002:0001ebcc       $unwind$_chsize_nolock     000000018004cbcc     LIBCMT:chsize.obj
 0002:0001ebe8       $unwind$_read_nolock       000000018004cbe8     LIBCMT:read.obj
 0002:0001ec00       $unwind$__mtold12          000000018004cc00     LIBCMT:mantold.obj
 0002:0001ec18       $unwind$__delayLoadHelper2 000000018004cc18     DelayImp:delayhlp.obj
 0002:0001ec30       $xdatasym                  000000018004cc30     LIBCMT:cos.obj
 0002:0001ec38       $xdatasym                  000000018004cc38     LIBCMT:cosf.obj
 0002:0001ec40       $xdatasym                  000000018004cc40     LIBCMT:expf.obj
 0002:0001ec48       $xdatasym                  000000018004cc48     LIBCMT:powf.obj
 0002:0001ec58       $xdatasym                  000000018004cc58     LIBCMT:sin.obj
 0002:0001ec60       $xdatasym                  000000018004cc60     LIBCMT:sinf.obj
 0002:0001ec68       $unwind$__fma3_lib_init    000000018004cc68     LIBCMT:fma3_available.obj
 0002:0001ec70       $xdatasym                  000000018004cc70     LIBCMT:remainder_piby2_forAsm.obj
 0002:0001ec80       $xdatasym                  000000018004cc80     LIBCMT:remainder_piby2_forFMA3.obj
 0002:0001ec90       $xdatasym                  000000018004cc90     LIBCMT:remainder_piby2f_forAsm.obj
 0002:0001ec94       $unwind$_expf_special      000000018004cc94     LIBCMT:exp_special.obj
 0002:0001eca0       $unwind$_powf_special      000000018004cca0     LIBCMT:pow_special.obj
 0002:0001ecb0       $xdatasym                  000000018004ccb0     LIBCMT:remainder_piby2f_forC.obj
 0002:00020220       .edata                     000000018004e220     lwip_image.exp
 0002:00020248       rgpv                       000000018004e248     lwip_image.exp
 0002:0002024c       rgszName                   000000018004e24c     lwip_image.exp
 0002:00020250       rgwOrd                     000000018004e250     lwip_image.exp
 0002:00020252       szName                     000000018004e252     lwip_image.exp
 0002:00020262       $N00001                    000000018004e262     lwip_image.exp
 0002:000205be       .idata$6                   000000018004e5be     kernel32:KERNEL32.dll
 0002:000205e6       .idata$6                   000000018004e5e6     shell32:SHELL32.dll
 0003:000003c0       _assertstring              000000018004f3c0     LIBCMT:wassert.obj
 0003:00000410       dotdotdot                  000000018004f410     LIBCMT:wassert.obj
 0003:00000418       newline                    000000018004f418     LIBCMT:wassert.obj
 0003:00000420       dblnewline                 000000018004f420     LIBCMT:wassert.obj
 0003:00000454       ?dazSupported@?1??_ctrlfp@@9@9 000000018004f454     LIBCMT:fpctrl.obj
 0003:00000470       errtable                   000000018004f470     LIBCMT:dosmap.obj
 0003:000005d8       ErrnoNoMem                 000000018004f5d8     LIBCMT:dosmap.obj
 0003:000005dc       DoserrorNoMem              000000018004f5dc     LIBCMT:dosmap.obj
 0003:000005e0       _locktable                 000000018004f5e0     LIBCMT:mlock.obj
 0003:00000cb8       __rgctypeflag              000000018004fcb8     LIBCMT:mbctype.obj
 0003:00000cc0       __rgcode_page_info         000000018004fcc0     LIBCMT:mbctype.obj
 0003:000011f0       _ctype_loc_style           00000001800501f0     LIBCMT:wsetloca.obj
 0003:000011f8       ?isPackaged@?1??__crtIsPackagedApp@@9@9 00000001800501f8     LIBCMT:winapisupp.obj
 0003:00001250       ?_names@?1??_get_fname@@9@9 0000000180050250     LIBCMT:fpexcept.obj
 0003:00001520       DoubleFormat               0000000180050520     LIBCMT:intrncvt.obj
 0003:00001538       FloatFormat                0000000180050538     LIBCMT:intrncvt.obj
 0003:00001930       _module                    0000000180050930     init.obj
 0003:00001978       ?pi@?1??atan2@@9@9         0000000180050978     LIBCMT:atan2.obj
 0003:00001980       ?piby2@?1??atan2@@9@9      0000000180050980     LIBCMT:atan2.obj
 0003:00001988       ?piby4@?1??atan2@@9@9      0000000180050988     LIBCMT:atan2.obj
 0003:00001990       ?three_piby4@?1??atan2@@9@9 0000000180050990     LIBCMT:atan2.obj
 0003:00001998       ?pi_head@?1??atan2@@9@9    0000000180050998     LIBCMT:atan2.obj
 0003:000019a0       ?pi_tail@?1??atan2@@9@9    00000001800509a0     LIBCMT:atan2.obj
 0003:000019a8       ?piby2_head@?1??atan2@@9@9 00000001800509a8     LIBCMT:atan2.obj
 0003:000019b0       ?piby2_tail@?1??atan2@@9@9 00000001800509b0     LIBCMT:atan2.obj
 0003:00001dc8       allocator_arg              0000000180050dc8     libcpmt:syserror.obj
 0003:00001dc9       piecewise_construct        0000000180050dc9     libcpmt:syserror.obj
 0003:00001dca       _Tuple_alloc               0000000180050dca     libcpmt:xthrow.obj
 0003:00001dcb       ignore                     0000000180050dcb     libcpmt:xthrow.obj
 0003:00001dcc       allocator_arg              0000000180050dcc     libcpmt:xthrow.obj
 0003:00001dcd       piecewise_construct        0000000180050dcd     libcpmt:xthrow.obj
 0003:00001dd8       __proc_attached            0000000180050dd8     LIBCMT:dllcrt0.obj
 0003:00001e00       GS_ExceptionRecord         0000000180050e00     LIBCMT:gs_report.obj
 0003:00001ea0       GS_ContextRecord           0000000180050ea0     LIBCMT:gs_report.obj
 0003:00002370       DebuggerWasPresent         0000000180051370     LIBCMT:gs_report.obj
 0003:00002400       lclcritsects               0000000180051400     LIBCMT:mlock.obj
 0003:00002638       ctrlc_action               0000000180051638     LIBCMT:winsig.obj
 0003:00002640       ctrlbreak_action           0000000180051640     LIBCMT:winsig.obj
 0003:00002648       abort_action               0000000180051648     LIBCMT:winsig.obj
 0003:00002650       term_action                0000000180051650     LIBCMT:winsig.obj
 0003:00002658       ConsoleCtrlHandler_Installed 0000000180051658     LIBCMT:winsig.obj
 0003:00002660       ?pfnMessageBox@?1??__crtMessageBoxW@@9@9 0000000180051660     LIBCMT:crtmboxw.obj
 0003:00002668       ?pfnGetActiveWindow@?1??__crtMessageBoxW@@9@9 0000000180051668     LIBCMT:crtmboxw.obj
 0003:00002670       ?pfnGetLastActivePopup@?1??__crtMessageBoxW@@9@9 0000000180051670     LIBCMT:crtmboxw.obj
 0003:00002678       ?pfnGetProcessWindowStation@?1??__crtMessageBoxW@@9@9 0000000180051678     LIBCMT:crtmboxw.obj
 0003:00002680       ?pfnGetUserObjectInformation@?1??__crtMessageBoxW@@9@9 0000000180051680     LIBCMT:crtmboxw.obj
 0003:000026a0       ?outmsg@?8??_NMSG_WRITE@@9@9 00000001800516a0     LIBCMT:crt0msg.obj
 0003:00002ee0       __type_info_root_node      0000000180051ee0     LIBCMT:typname.obj
 0003:00002f10       fSystemSet                 0000000180051f10     LIBCMT:mbctype.obj
 0003:00002f20       ?_pgmname@?1??_setargv@@9@9 0000000180051f20     LIBCMT:stdargv.obj
 0003:00003030       g_pfnRtlGenRandom          0000000180052030     LIBCMT:rand_s.obj
 0003:00003038       __crtCallProc              0000000180052038     LIBCMT:winapinls.obj
 0003:00003048       __enable_percent_n         0000000180052048     LIBCMT:printf.obj
 0003:000030a0       heap                       00000001800520a0     LIBCMT:undname.obj
 0003:00003310       allocator_arg              0000000180052310     init.obj
 0003:00003311       piecewise_construct        0000000180052311     init.obj
 0003:00003312       allocator_arg              0000000180052312     image.obj
 0003:00003313       piecewise_construct        0000000180052313     image.obj
 0003:00003314       allocator_arg              0000000180052314     resize_worker.obj
 0003:00003315       piecewise_construct        0000000180052315     resize_worker.obj
 0003:00003316       allocator_arg              0000000180052316     rotate_worker.obj
 0003:00003317       piecewise_construct        0000000180052317     rotate_worker.obj
 0003:00003320       allocator_arg              0000000180052320     blur_worker.obj
 0003:00003321       piecewise_construct        0000000180052321     blur_worker.obj
 0003:00003322       allocator_arg              0000000180052322     crop_worker.obj
 0003:00003323       piecewise_construct        0000000180052323     crop_worker.obj
 0003:00003324       allocator_arg              0000000180052324     mirror_worker.obj
 0003:00003325       piecewise_construct        0000000180052325     mirror_worker.obj
 0003:00003326       allocator_arg              0000000180052326     pad_worker.obj
 0003:00003327       piecewise_construct        0000000180052327     pad_worker.obj
 0003:00003328       allocator_arg              0000000180052328     sharpen_worker.obj
 0003:00003329       piecewise_construct        0000000180052329     sharpen_worker.obj
 0003:0000332a       allocator_arg              000000018005232a     hsla_worker.obj
 0003:0000332b       piecewise_construct        000000018005232b     hsla_worker.obj
 0003:0000332c       allocator_arg              000000018005232c     opacify_worker.obj
 0003:0000332d       piecewise_construct        000000018005232d     opacify_worker.obj
 0003:0000332e       allocator_arg              000000018005232e     paste_worker.obj
 0003:0000332f       piecewise_construct        000000018005232f     paste_worker.obj
 0003:00003330       allocator_arg              0000000180052330     setpixel_worker.obj
 0003:00003331       piecewise_construct        0000000180052331     setpixel_worker.obj
 0004:00000000       $pdata$?InitAll@@YAXV?$Local@VObject@v8@@@v8@@@Z 0000000180054000     init.obj
 0004:0000000c       $pdata$??1?$basic_string@DU?$char_traits@D@std@@V?$allocator@D@2@@std@@QEAA@XZ 000000018005400c     init.obj
 0004:00000018       $pdata$?assign@?$basic_string@DU?$char_traits@D@std@@V?$allocator@D@2@@std@@QEAAAEAV12@AEBV12@_K1@Z 0000000180054018     init.obj
 0004:00000024       $pdata$?assign@?$basic_string@DU?$char_traits@D@std@@V?$allocator@D@2@@std@@QEAAAEAV12@PEBD_K@Z 0000000180054024     init.obj
 0004:00000030       $pdata$?erase@?$basic_string@DU?$char_traits@D@std@@V?$allocator@D@2@@std@@QEAAAEAV12@_K0@Z 0000000180054030     init.obj
 0004:0000003c       $pdata$?_Copy@?$basic_string@DU?$char_traits@D@std@@V?$allocator@D@2@@std@@QEAAX_K0@Z 000000018005403c     init.obj
 0004:00000048       $pdata$??_Gexception@stdext@@UEAAPEAXI@Z 0000000180054048     image.obj
 0004:00000054       $pdata$??1ObjectWrap@node@@UEAA@XZ 0000000180054054     image.obj
 0004:00000060       $pdata$?Wrap@ObjectWrap@node@@IEAAXV?$Local@VObject@v8@@@v8@@@Z 0000000180054060     image.obj
 0004:0000006c       $pdata$?Ref@ObjectWrap@node@@MEAAXXZ 000000018005406c     image.obj
 0004:00000078       $pdata$?Unref@ObjectWrap@node@@MEAAXXZ 0000000180054078     image.obj
 0004:00000084       $pdata$?WeakCallback@ObjectWrap@node@@CAXAEBV?$WeakCallbackData@VObject@v8@@VObjectWrap@node@@@v8@@@Z 0000000180054084     image.obj
 0004:00000090       $pdata$??_GObjectWrap@node@@UEAAPEAXI@Z 0000000180054090     image.obj
 0004:0000009c       $pdata$?FunctionCallbackWrapper@imp@Nan@@YAXAEBV?$FunctionCallbackInfo@VValue@v8@@@v8@@@Z 000000018005409c     image.obj
 0004:000000a8       $pdata$?New@?$Factory@VFunctionTemplate@v8@@@imp@Nan@@SA?AV?$Local@VFunctionTemplate@v8@@@v8@@P6AXAEBV?$FunctionCallbackInfo@VValue@v8@@@3@@ZV?$Local@VValue@v8@@@5@V?$Local@VSignature@v8@@@5@@Z 00000001800540a8     image.obj
 0004:000000b4       $pdata$??0Callback@Nan@@QEAA@AEBV?$Local@VFunction@v8@@@v8@@@Z 00000001800540b4     image.obj
 0004:000000c0       $pdata$?AsyncExecuteComplete@Nan@@YAXPEAUuv_work_s@@@Z 00000001800540c0     image.obj
 0004:000000cc       $pdata$?_snprintf@cimg@cimg_library@@YAHQEAD_KQEBDZZ 00000001800540cc     image.obj
 0004:000000d8       $pdata$?_vsnprintf@cimg@cimg_library@@YAHQEAD_KQEBDPEAD@Z 00000001800540d8     image.obj
 0004:000000e4       $pdata$??0CImgException@cimg_library@@QEAA@AEBU01@@Z 00000001800540e4     image.obj
 0004:000000f0       $pdata$??1CImgArgumentException@cimg_library@@UEAA@XZ 00000001800540f0     image.obj
 0004:000000f0       $pdata$??1CImgInstanceException@cimg_library@@UEAA@XZ 00000001800540f0     image.obj
 0004:000000f0       $pdata$??1CImgIOException@cimg_library@@UEAA@XZ 00000001800540f0     image.obj
 0004:000000f0       $pdata$??1CImgException@cimg_library@@UEAA@XZ 00000001800540f0     image.obj
 0004:000000fc       $pdata$??_GCImgException@cimg_library@@UEAAPEAXI@Z 00000001800540fc     image.obj
 0004:000000fc       $pdata$??_GCImgInstanceException@cimg_library@@UEAAPEAXI@Z 00000001800540fc     image.obj
 0004:000000fc       $pdata$??_GCImgIOException@cimg_library@@UEAAPEAXI@Z 00000001800540fc     image.obj
 0004:000000fc       $pdata$??_GCImgArgumentException@cimg_library@@UEAAPEAXI@Z 00000001800540fc     image.obj
 0004:00000108       $pdata$??0CImgArgumentException@cimg_library@@QEAA@QEBDZZ 0000000180054108     image.obj
 0004:00000114       $pdata$??0CImgInstanceException@cimg_library@@QEAA@QEBDZZ 0000000180054114     image.obj
 0004:00000120       $pdata$??0CImgIOException@cimg_library@@QEAA@QEBDZZ 0000000180054120     image.obj
 0004:0000012c       $pdata$?Mutex_attr@cimg@cimg_library@@YAAEAUMutex_info@12@XZ 000000018005412c     image.obj
 0004:00000138       $pdata$1$?Mutex_attr@cimg@cimg_library@@YAAEAUMutex_info@12@XZ 0000000180054138     image.obj
 0004:00000144       $pdata$2$?Mutex_attr@cimg@cimg_library@@YAAEAUMutex_info@12@XZ 0000000180054144     image.obj
 0004:00000150       $pdata$?warn@cimg@cimg_library@@YAXQEBDZZ 0000000180054150     image.obj
 0004:0000015c       $pdata$0$?warn@cimg@cimg_library@@YAXQEBDZZ 000000018005415c     image.obj
 0004:00000168       $pdata$1$?warn@cimg@cimg_library@@YAXQEBDZZ 0000000180054168     image.obj
 0004:00000174       $pdata$?filenamerand@cimg@cimg_library@@YAPEBDXZ 0000000180054174     image.obj
 0004:00000180       $pdata$?winformat_string@cimg@cimg_library@@YAXQEAD@Z 0000000180054180     image.obj
 0004:0000018c       $pdata$0$?winformat_string@cimg@cimg_library@@YAXQEAD@Z 000000018005418c     image.obj
 0004:00000198       $pdata$1$?winformat_string@cimg@cimg_library@@YAXQEAD@Z 0000000180054198     image.obj
 0004:000001a4       $pdata$??0CImgIOException@cimg_library@@QEAA@AEBU01@@Z 00000001800541a4     image.obj
 0004:000001a4       $pdata$??0CImgInstanceException@cimg_library@@QEAA@AEBU01@@Z 00000001800541a4     image.obj
 0004:000001a4       $pdata$??0CImgArgumentException@cimg_library@@QEAA@AEBU01@@Z 00000001800541a4     image.obj
 0004:000001b0       $pdata$?fclose@cimg@cimg_library@@YAHPEAU_iobuf@@@Z 00000001800541b0     image.obj
 0004:000001bc       $pdata$?info@cimg@cimg_library@@YAXXZ 00000001800541bc     image.obj
 0004:000001c8       $pdata$?temporary_path@cimg@cimg_library@@YAPEBDQEBD_N@Z 00000001800541c8     image.obj
 0004:000001d4       $pdata$?programfiles_path@cimg@cimg_library@@YAPEBDQEBD_N@Z 00000001800541d4     image.obj
 0004:000001e0       $pdata$?imagemagick_path@cimg@cimg_library@@YAPEBDQEBD_N@Z 00000001800541e0     image.obj
 0004:000001ec       $pdata$4$?imagemagick_path@cimg@cimg_library@@YAPEBDQEBD_N@Z 00000001800541ec     image.obj
 0004:000001f8       $pdata$5$?imagemagick_path@cimg@cimg_library@@YAPEBDQEBD_N@Z 00000001800541f8     image.obj
 0004:00000204       $pdata$6$?imagemagick_path@cimg@cimg_library@@YAPEBDQEBD_N@Z 0000000180054204     image.obj
 0004:00000210       $pdata$7$?imagemagick_path@cimg@cimg_library@@YAPEBDQEBD_N@Z 0000000180054210     image.obj
 0004:0000021c       $pdata$8$?imagemagick_path@cimg@cimg_library@@YAPEBDQEBD_N@Z 000000018005421c     image.obj
 0004:00000228       $pdata$?graphicsmagick_path@cimg@cimg_library@@YAPEBDQEBD_N@Z 0000000180054228     image.obj
 0004:00000234       $pdata$4$?graphicsmagick_path@cimg@cimg_library@@YAPEBDQEBD_N@Z 0000000180054234     image.obj
 0004:00000240       $pdata$5$?graphicsmagick_path@cimg@cimg_library@@YAPEBDQEBD_N@Z 0000000180054240     image.obj
 0004:0000024c       $pdata$6$?graphicsmagick_path@cimg@cimg_library@@YAPEBDQEBD_N@Z 000000018005424c     image.obj
 0004:00000258       $pdata$7$?graphicsmagick_path@cimg@cimg_library@@YAPEBDQEBD_N@Z 0000000180054258     image.obj
 0004:00000264       $pdata$8$?graphicsmagick_path@cimg@cimg_library@@YAPEBDQEBD_N@Z 0000000180054264     image.obj
 0004:00000270       $pdata$?medcon_path@cimg@cimg_library@@YAPEBDQEBD_N@Z 0000000180054270     image.obj
 0004:0000027c       $pdata$0$?medcon_path@cimg@cimg_library@@YAPEBDQEBD_N@Z 000000018005427c     image.obj
 0004:00000288       $pdata$1$?medcon_path@cimg@cimg_library@@YAPEBDQEBD_N@Z 0000000180054288     image.obj
 0004:00000294       $pdata$?strbuffersize@cimg@cimg_library@@YAPEBDK@Z 0000000180054294     image.obj
 0004:000002a0       $pdata$?Init@LwipImage@@SAXV?$Local@VObject@v8@@@v8@@@Z 00000001800542a0     image.obj
 0004:000002ac       $pdata$??0LwipImage@@QEAA@PEAE_K1@Z 00000001800542ac     image.obj
 0004:000002b8       $pdata$??_GLwipImage@@UEAAPEAXI@Z 00000001800542b8     image.obj
 0004:000002c4       $pdata$?New@LwipImage@@SAXAEBV?$FunctionCallbackInfo@VValue@v8@@@Nan@@@Z 00000001800542c4     image.obj
 0004:000002d0       $pdata$?width@LwipImage@@SAXAEBV?$FunctionCallbackInfo@VValue@v8@@@Nan@@@Z 00000001800542d0     image.obj
 0004:000002dc       $pdata$?height@LwipImage@@SAXAEBV?$FunctionCallbackInfo@VValue@v8@@@Nan@@@Z 00000001800542dc     image.obj
 0004:000002e8       $pdata$?getPixel@LwipImage@@SAXAEBV?$FunctionCallbackInfo@VValue@v8@@@Nan@@@Z 00000001800542e8     image.obj
 0004:000002f4       $pdata$?buffer@LwipImage@@SAXAEBV?$FunctionCallbackInfo@VValue@v8@@@Nan@@@Z 00000001800542f4     image.obj
 0004:00000300       $pdata$?resize@LwipImage@@SAXAEBV?$FunctionCallbackInfo@VValue@v8@@@Nan@@@Z 0000000180054300     image.obj
 0004:0000030c       $pdata$?rotate@LwipImage@@SAXAEBV?$FunctionCallbackInfo@VValue@v8@@@Nan@@@Z 000000018005430c     image.obj
 0004:00000318       $pdata$?blur@LwipImage@@SAXAEBV?$FunctionCallbackInfo@VValue@v8@@@Nan@@@Z 0000000180054318     image.obj
 0004:00000324       $pdata$?crop@LwipImage@@SAXAEBV?$FunctionCallbackInfo@VValue@v8@@@Nan@@@Z 0000000180054324     image.obj
 0004:00000330       $pdata$?mirror@LwipImage@@SAXAEBV?$FunctionCallbackInfo@VValue@v8@@@Nan@@@Z 0000000180054330     image.obj
 0004:0000033c       $pdata$?pad@LwipImage@@SAXAEBV?$FunctionCallbackInfo@VValue@v8@@@Nan@@@Z 000000018005433c     image.obj
 0004:00000348       $pdata$?sharpen@LwipImage@@SAXAEBV?$FunctionCallbackInfo@VValue@v8@@@Nan@@@Z 0000000180054348     image.obj
 0004:00000354       $pdata$?hslaAdj@LwipImage@@SAXAEBV?$FunctionCallbackInfo@VValue@v8@@@Nan@@@Z 0000000180054354     image.obj
 0004:00000360       $pdata$?opacify@LwipImage@@SAXAEBV?$FunctionCallbackInfo@VValue@v8@@@Nan@@@Z 0000000180054360     image.obj
 0004:0000036c       $pdata$?paste@LwipImage@@SAXAEBV?$FunctionCallbackInfo@VValue@v8@@@Nan@@@Z 000000018005436c     image.obj
 0004:00000378       $pdata$?setPixel@LwipImage@@SAXAEBV?$FunctionCallbackInfo@VValue@v8@@@Nan@@@Z 0000000180054378     image.obj
 0004:00000384       $pdata$??0?$CImg@D@cimg_library@@QEAA@IIII@Z 0000000180054384     image.obj
 0004:00000390       $pdata$?assign@?$CImg@D@cimg_library@@QEAAAEAU12@IIII@Z 0000000180054390     image.obj
 0004:0000039c       $pdata$??0?$CImg@E@cimg_library@@QEAA@QEBEIIII_N@Z 000000018005439c     image.obj
 0004:000003a8       $pdata$??0?$CImg@E@cimg_library@@QEAA@IIII@Z 00000001800543a8     image.obj
 0004:000003b4       $pdata$??0?$CImg@E@cimg_library@@QEAA@AEBU01@@Z 00000001800543b4     image.obj
 0004:000003c0       $pdata$??$Unwrap@VLwipImage@@@ObjectWrap@node@@SAPEAVLwipImage@@V?$Local@VObject@v8@@@v8@@@Z 00000001800543c0     image.obj
 0004:000003cc       $pdata$?Call_@Callback@Nan@@AEBA?AV?$Local@VValue@v8@@@v8@@PEAVIsolate@4@V?$Local@VObject@v8@@@4@HQEAV34@@Z 00000001800543cc     resize_worker.obj
 0004:000003d8       $pdata$??0AsyncWorker@Nan@@QEAA@PEAVCallback@1@@Z 00000001800543d8     resize_worker.obj
 0004:000003e4       $pdata$??1AsyncWorker@Nan@@UEAA@XZ 00000001800543e4     resize_worker.obj
 0004:000003f0       $pdata$?WorkComplete@AsyncWorker@Nan@@UEAAXXZ 00000001800543f0     resize_worker.obj
 0004:000003fc       $pdata$?HandleOKCallback@AsyncWorker@Nan@@MEAAXXZ 00000001800543fc     resize_worker.obj
 0004:00000408       $pdata$?HandleErrorCallback@AsyncWorker@Nan@@MEAAXXZ 0000000180054408     resize_worker.obj
 0004:00000414       $pdata$?SetErrorMessage@AsyncWorker@Nan@@IEAAXPEBD@Z 0000000180054414     resize_worker.obj
 0004:00000420       $pdata$??_GAsyncWorker@Nan@@UEAAPEAXI@Z 0000000180054420     resize_worker.obj
 0004:0000042c       $pdata$??_GResizeWorker@@UEAAPEAXI@Z 000000018005442c     resize_worker.obj
 0004:00000438       $pdata$?Execute@ResizeWorker@@UEAAXXZ 0000000180054438     resize_worker.obj
 0004:00000444       $pdata$?HandleOKCallback@RotateWorker@@UEAAXXZ 0000000180054444     rotate_worker.obj
 0004:00000444       $pdata$?HandleOKCallback@CropWorker@@UEAAXXZ 0000000180054444     crop_worker.obj
 0004:00000444       $pdata$?HandleOKCallback@SharpenWorker@@UEAAXXZ 0000000180054444     sharpen_worker.obj
 0004:00000444       $pdata$?HandleOKCallback@HSLAWorker@@UEAAXXZ 0000000180054444     hsla_worker.obj
 0004:00000444       $pdata$?HandleOKCallback@OpacifyWorker@@UEAAXXZ 0000000180054444     opacify_worker.obj
 0004:00000444       $pdata$?HandleOKCallback@MirrorWorker@@UEAAXXZ 0000000180054444     mirror_worker.obj
 0004:00000444       $pdata$?HandleOKCallback@SetPixelWorker@@UEAAXXZ 0000000180054444     setpixel_worker.obj
 0004:00000444       $pdata$?HandleOKCallback@BlurWorker@@UEAAXXZ 0000000180054444     blur_worker.obj
 0004:00000444       $pdata$?HandleOKCallback@PasteWorker@@UEAAXXZ 0000000180054444     paste_worker.obj
 0004:00000444       $pdata$?HandleOKCallback@PadWorker@@UEAAXXZ 0000000180054444     pad_worker.obj
 0004:00000444       $pdata$?HandleOKCallback@ResizeWorker@@UEAAXXZ 0000000180054444     resize_worker.obj
 0004:00000450       $pdata$??0?$CImg@K@cimg_library@@QEAA@IIII@Z 0000000180054450     resize_worker.obj
 0004:0000045c       $pdata$?resize@?$CImg@E@cimg_library@@QEAAAEAU12@HHHHHIMMMM@Z 000000018005445c     resize_worker.obj
 0004:00000468       $pdata$?assign@?$CImg@E@cimg_library@@QEAAAEAU12@XZ 0000000180054468     resize_worker.obj
 0004:00000474       $pdata$?move_to@?$CImg@E@cimg_library@@QEAAAEAU12@AEAU12@@Z 0000000180054474     resize_worker.obj
 0004:00000480       $pdata$?get_resize@?$CImg@E@cimg_library@@QEBA?AU12@HHHHHIMMMM@Z 0000000180054480     resize_worker.obj
 0004:0000048c       $pdata$??0?$CImg@M@cimg_library@@QEAA@IIII@Z 000000018005448c     resize_worker.obj
 0004:00000498       $pdata$??0?$CImg@M@cimg_library@@QEAA@IIIIAEBM@Z 0000000180054498     resize_worker.obj
 0004:000004a4       $pdata$??0?$CImg@E@cimg_library@@QEAA@IIIIAEBE@Z 00000001800544a4     resize_worker.obj
 0004:000004b0       $pdata$?assign@?$CImg@E@cimg_library@@QEAAAEAU12@IIII@Z 00000001800544b0     resize_worker.obj
 0004:000004bc       $pdata$??H?$CImg@E@cimg_library@@QEBA?AU01@XZ 00000001800544bc     resize_worker.obj
 0004:000004c8       $pdata$?_cimg_lanczos@?$CImg@E@cimg_library@@SAMM@Z 00000001800544c8     resize_worker.obj
 0004:000004d4       $pdata$2$?_cimg_lanczos@?$CImg@E@cimg_library@@SAMM@Z 00000001800544d4     resize_worker.obj
 0004:000004e0       $pdata$3$?_cimg_lanczos@?$CImg@E@cimg_library@@SAMM@Z 00000001800544e0     resize_worker.obj
 0004:000004ec       $pdata$?get_crop@?$CImg@E@cimg_library@@QEBA?AU12@HHHHHHHH_N@Z 00000001800544ec     resize_worker.obj
 0004:000004f8       $pdata$?draw_image@?$CImg@E@cimg_library@@QEAAAEAU12@HHHHAEBU12@M@Z 00000001800544f8     resize_worker.obj
 0004:00000504       $pdata$??0?$CImg@I@cimg_library@@QEAA@IIII@Z 0000000180054504     resize_worker.obj
 0004:00000510       $pdata$?fill@?$CImg@M@cimg_library@@QEAAAEAU12@AEBM@Z 0000000180054510     resize_worker.obj
 0004:0000051c       $pdata$??0?$CImg@E@cimg_library@@QEAA@AEBU01@_N@Z 000000018005451c     resize_worker.obj
 0004:00000528       $pdata$?assign@?$CImg@E@cimg_library@@QEAAAEAU12@QEBEIIII@Z 0000000180054528     resize_worker.obj
 0004:00000534       $pdata$?assign@?$CImg@E@cimg_library@@QEAAAEAU12@QEBEIIII_N@Z 0000000180054534     resize_worker.obj
 0004:00000540       $pdata$??$assign@M@?$CImg@E@cimg_library@@QEAAAEAU01@QEBMIIII@Z 0000000180054540     resize_worker.obj
 0004:0000054c       $pdata$??_GRotateWorker@@UEAAPEAXI@Z 000000018005454c     rotate_worker.obj
 0004:00000558       $pdata$?Execute@RotateWorker@@UEAAXXZ 0000000180054558     rotate_worker.obj
 0004:00000564       $pdata$?fillC@?$CImg@E@cimg_library@@QEAAAEAU12@IIIHZZ 0000000180054564     rotate_worker.obj
 0004:00000570       $pdata$0$?fillC@?$CImg@E@cimg_library@@QEAAAEAU12@IIIHZZ 0000000180054570     rotate_worker.obj
 0004:0000057c       $pdata$1$?fillC@?$CImg@E@cimg_library@@QEAAAEAU12@IIIHZZ 000000018005457c     rotate_worker.obj
 0004:00000588       $pdata$?get_rotate@?$CImg@E@cimg_library@@QEBA?AU12@MII@Z 0000000180054588     rotate_worker.obj
 0004:00000594       $pdata$?_linear_atXY@?$CImg@E@cimg_library@@QEBAMMMHH@Z 0000000180054594     rotate_worker.obj
 0004:000005a0       $pdata$??_GBlurWorker@@UEAAPEAXI@Z 00000001800545a0     blur_worker.obj
 0004:000005ac       $pdata$?Execute@BlurWorker@@UEAAXXZ 00000001800545ac     blur_worker.obj
 0004:000005b8       $pdata$?vanvliet@?$CImg@E@cimg_library@@QEAAAEAU12@MID_N@Z 00000001800545b8     blur_worker.obj
 0004:000005c4       $pdata$3$?vanvliet@?$CImg@E@cimg_library@@QEAAAEAU12@MID_N@Z 00000001800545c4     blur_worker.obj
 0004:000005d0       $pdata$4$?vanvliet@?$CImg@E@cimg_library@@QEAAAEAU12@MID_N@Z 00000001800545d0     blur_worker.obj
 0004:000005dc       $pdata$5$?vanvliet@?$CImg@E@cimg_library@@QEAAAEAU12@MID_N@Z 00000001800545dc     blur_worker.obj
 0004:000005e8       $pdata$?_cimg_recursive_apply@?$CImg@E@cimg_library@@SAXPEAEQEBNHKI_N@Z 00000001800545e8     blur_worker.obj
 0004:000005f4       $pdata$??_GCropWorker@@UEAAPEAXI@Z 00000001800545f4     crop_worker.obj
 0004:00000600       $pdata$?Execute@CropWorker@@UEAAXXZ 0000000180054600     crop_worker.obj
 0004:0000060c       $pdata$?crop@?$CImg@E@cimg_library@@QEAAAEAU12@HHHHHHHH_N@Z 000000018005460c     crop_worker.obj
 0004:00000618       $pdata$??_GMirrorWorker@@UEAAPEAXI@Z 0000000180054618     mirror_worker.obj
 0004:00000624       $pdata$?Execute@MirrorWorker@@UEAAXXZ 0000000180054624     mirror_worker.obj
 0004:00000630       $pdata$?append@?$basic_string@DU?$char_traits@D@std@@V?$allocator@D@2@@std@@QEAAAEAV12@AEBV12@_K1@Z 0000000180054630     mirror_worker.obj
 0004:0000063c       $pdata$0$?append@?$basic_string@DU?$char_traits@D@std@@V?$allocator@D@2@@std@@QEAAAEAV12@AEBV12@_K1@Z 000000018005463c     mirror_worker.obj
 0004:00000648       $pdata$1$?append@?$basic_string@DU?$char_traits@D@std@@V?$allocator@D@2@@std@@QEAAAEAV12@AEBV12@_K1@Z 0000000180054648     mirror_worker.obj
 0004:00000654       $pdata$2$?append@?$basic_string@DU?$char_traits@D@std@@V?$allocator@D@2@@std@@QEAAAEAV12@AEBV12@_K1@Z 0000000180054654     mirror_worker.obj
 0004:00000660       $pdata$?append@?$basic_string@DU?$char_traits@D@std@@V?$allocator@D@2@@std@@QEAAAEAV12@PEBD_K@Z 0000000180054660     mirror_worker.obj
 0004:0000066c       $pdata$0$?append@?$basic_string@DU?$char_traits@D@std@@V?$allocator@D@2@@std@@QEAAAEAV12@PEBD_K@Z 000000018005466c     mirror_worker.obj
 0004:00000678       $pdata$1$?append@?$basic_string@DU?$char_traits@D@std@@V?$allocator@D@2@@std@@QEAAAEAV12@PEBD_K@Z 0000000180054678     mirror_worker.obj
 0004:00000684       $pdata$2$?append@?$basic_string@DU?$char_traits@D@std@@V?$allocator@D@2@@std@@QEAAAEAV12@PEBD_K@Z 0000000180054684     mirror_worker.obj
 0004:00000690       $pdata$?mirror@?$CImg@E@cimg_library@@QEAAAEAU12@D@Z 0000000180054690     mirror_worker.obj
 0004:0000069c       $pdata$4$?mirror@?$CImg@E@cimg_library@@QEAAAEAU12@D@Z 000000018005469c     mirror_worker.obj
 0004:000006a8       $pdata$5$?mirror@?$CImg@E@cimg_library@@QEAAAEAU12@D@Z 00000001800546a8     mirror_worker.obj
 0004:000006b4       $pdata$6$?mirror@?$CImg@E@cimg_library@@QEAAAEAU12@D@Z 00000001800546b4     mirror_worker.obj
 0004:000006c0       $pdata$??_GPadWorker@@UEAAPEAXI@Z 00000001800546c0     pad_worker.obj
 0004:000006cc       $pdata$?Execute@PadWorker@@UEAAXXZ 00000001800546cc     pad_worker.obj
 0004:000006d8       $pdata$??_GSharpenWorker@@UEAAPEAXI@Z 00000001800546d8     sharpen_worker.obj
 0004:000006e4       $pdata$?Execute@SharpenWorker@@UEAAXXZ 00000001800546e4     sharpen_worker.obj
 0004:000006f0       $pdata$?sharpen@?$CImg@E@cimg_library@@QEAAAEAU12@M_NMMM@Z 00000001800546f0     sharpen_worker.obj
 0004:000006fc       $pdata$?max@?$CImg@M@cimg_library@@QEAAAEAMXZ 00000001800546fc     sharpen_worker.obj
 0004:00000708       $pdata$??$?YE@?$CImg@M@cimg_library@@QEAAAEAU01@AEBU?$CImg@E@1@@Z 0000000180054708     sharpen_worker.obj
 0004:00000714       $pdata$??_GHSLAWorker@@UEAAPEAXI@Z 0000000180054714     hsla_worker.obj
 0004:00000720       $pdata$?Execute@HSLAWorker@@UEAAXXZ 0000000180054720     hsla_worker.obj
 0004:0000072c       $pdata$?rgb_to_hsl@@YAXEEEPEAM00@Z 000000018005472c     hsla_worker.obj
 0004:00000738       $pdata$?hsl_to_rgb@@YAXMMMPEAE00@Z 0000000180054738     hsla_worker.obj
 0004:00000744       $pdata$??_GOpacifyWorker@@UEAAPEAXI@Z 0000000180054744     opacify_worker.obj
 0004:00000750       $pdata$?Execute@OpacifyWorker@@UEAAXXZ 0000000180054750     opacify_worker.obj
 0004:0000075c       $pdata$??0PasteWorker@@QEAA@_K0AEAV?$Local@VObject@v8@@@v8@@00PEAU?$CImg@E@cimg_library@@PEAVCallback@Nan@@@Z 000000018005475c     paste_worker.obj
 0004:00000768       $pdata$??_GPasteWorker@@UEAAPEAXI@Z 0000000180054768     paste_worker.obj
 0004:00000774       $pdata$?Execute@PasteWorker@@UEAAXXZ 0000000180054774     paste_worker.obj
 0004:00000780       $pdata$??_GSetPixelWorker@@UEAAPEAXI@Z 0000000180054780     setpixel_worker.obj
 0004:0000078c       $pdata$?Execute@SetPixelWorker@@UEAAXXZ 000000018005478c     setpixel_worker.obj
 0004:00000798       $pdata$load_exe_hook       0000000180054798     win_delay_load_hook.obj
 0004:000007b0       $pdata$??0bad_alloc@std@@QEAA@AEBV01@@Z 00000001800547b0     libcpmt:xthrow.obj
 0004:000007bc       $pdata$??0length_error@std@@QEAA@AEBV01@@Z 00000001800547bc     libcpmt:xthrow.obj
 0004:000007c8       $pdata$??0logic_error@std@@QEAA@AEBV01@@Z 00000001800547c8     libcpmt:xthrow.obj
 0004:000007d4       $pdata$??0out_of_range@std@@QEAA@AEBV01@@Z 00000001800547d4     libcpmt:xthrow.obj
 0004:000007e0       $pdata$??_Gbad_alloc@std@@UEAAPEAXI@Z 00000001800547e0     libcpmt:xthrow.obj
 0004:000007ec       $pdata$??_Glogic_error@std@@UEAAPEAXI@Z 00000001800547ec     libcpmt:xthrow.obj
 0004:000007ec       $pdata$??_Glength_error@std@@UEAAPEAXI@Z 00000001800547ec     libcpmt:xthrow.obj
 0004:000007ec       $pdata$??_Gout_of_range@std@@UEAAPEAXI@Z 00000001800547ec     libcpmt:xthrow.obj
 0004:000007f8       $pdata$?_Xbad_alloc@std@@YAXXZ 00000001800547f8     libcpmt:xthrow.obj
 0004:00000804       $pdata$?_Xlength_error@std@@YAXPEBD@Z 0000000180054804     libcpmt:xthrow.obj
 0004:00000810       $pdata$?_Xout_of_range@std@@YAXPEBD@Z 0000000180054810     libcpmt:xthrow.obj
 0004:00000834       $pdata$__onexitinit        0000000180054834     LIBCMT:onexit.obj
 0004:00000840       $pdata$_onexit             0000000180054840     LIBCMT:onexit.obj
 0004:0000084c       $pdata$atexit              000000018005484c     LIBCMT:onexit.obj
 0004:00000858       $pdata$_purecall           0000000180054858     LIBCMT:purevirt.obj
 0004:00000864       $pdata$??2@YAPEAX_K@Z      0000000180054864     LIBCMT:new.obj
 0004:00000870       $pdata$_vsnprintf_helper   0000000180054870     LIBCMT:vsnprnc.obj
 0004:0000087c       $pdata$_vsnprintf_s        000000018005487c     LIBCMT:vsnprnc.obj
 0004:00000888       $pdata$_vsnprintf_s_l      0000000180054888     LIBCMT:vsnprnc.obj
 0004:00000894       $pdata$__initstdio         0000000180054894     LIBCMT:_file.obj
 0004:000008a0       $pdata$__endstdio          00000001800548a0     LIBCMT:_file.obj
 0004:000008ac       $pdata$_lock_file          00000001800548ac     LIBCMT:_file.obj
 0004:000008b8       $pdata$_lock_file2         00000001800548b8     LIBCMT:_file.obj
 0004:000008c4       $pdata$remove              00000001800548c4     LIBCMT:unlink.obj
 0004:000008d0       $pdata$_wassert            00000001800548d0     LIBCMT:wassert.obj
 0004:000008dc       $pdata$swprintf            00000001800548dc     LIBCMT:wassert.obj
 0004:000008f4       $pdata$_fsopen             00000001800548f4     LIBCMT:fopen.obj
 0004:00000900       $pdata$fprintf             0000000180054900     LIBCMT:fprintf.obj
 0004:0000090c       $pdata$rand                000000018005490c     LIBCMT:rand.obj
 0004:00000918       $pdata$srand               0000000180054918     LIBCMT:rand.obj
 0004:00000924       $pdata$_vsnprintf          0000000180054924     LIBCMT:vsnprint.obj
 0004:00000930       $pdata$_vsnprintf_l        0000000180054930     LIBCMT:vsnprint.obj
 0004:0000093c       $pdata$_getenv_helper_nolock 000000018005493c     LIBCMT:getenv.obj
 0004:00000948       $pdata$getenv              0000000180054948     LIBCMT:getenv.obj
 0004:00000954       $pdata$??8type_info@@QEBA_NAEBV0@@Z 0000000180054954     LIBCMT:typinfo.obj
 0004:00000960       $pdata$??_Gtype_info@@UEAAPEAXI@Z 0000000180054960     LIBCMT:typinfo.obj
 0004:0000096c       $pdata$_vscprintf_helper   000000018005496c     LIBCMT:vsprintf.obj
 0004:00000978       $pdata$_fclose_nolock      0000000180054978     LIBCMT:fclose.obj
 0004:00000984       $pdata$fclose              0000000180054984     LIBCMT:fclose.obj
 0004:00000990       $pdata$??0_LocaleUpdate@@QEAA@PEAUlocaleinfo_struct@@@Z 0000000180054990     LIBCMT:stricmp.obj
 0004:0000099c       $pdata$_stricmp            000000018005499c     LIBCMT:stricmp.obj
 0004:000009a8       $pdata$_stricmp_l          00000001800549a8     LIBCMT:stricmp.obj
 0004:000009b4       $pdata$_CRT_INIT           00000001800549b4     LIBCMT:dllcrt0.obj
 0004:000009c0       $pdata$_DllMainCRTStartup  00000001800549c0     LIBCMT:dllcrt0.obj
 0004:000009cc       $pdata$__DllMainCRTStartup 00000001800549cc     LIBCMT:dllcrt0.obj
 0004:000009e4       $pdata$_CxxThrowException  00000001800549e4     LIBCMT:throw.obj
 0004:000009f0       $pdata$?_GetEstablisherFrame@@YAPEA_KPEA_KPEAU_xDISPATCHER_CONTEXT@@PEBU_s_FuncInfo@@0@Z 00000001800549f0     LIBCMT:trnsctrl.obj
 0004:000009fc       $pdata$?_GetRangeOfTrysToCheck@@YAPEBU_s_TryBlockMapEntry@@PEA_KPEBU_s_FuncInfo@@HHPEAI2PEAU_xDISPATCHER_CONTEXT@@@Z 00000001800549fc     LIBCMT:trnsctrl.obj
 0004:00000a08       $pdata$?__FrameUnwindToEmptyState@@YAXPEA_KPEAU_xDISPATCHER_CONTEXT@@PEBU_s_FuncInfo@@@Z 0000000180054a08     LIBCMT:trnsctrl.obj
 0004:00000a14       $pdata$?__SehTransFilter@@YAHPEAU_EXCEPTION_POINTERS@@PEAUEHExceptionRecord@@PEA_KPEAU_CONTEXT@@PEAU_xDISPATCHER_CONTEXT@@PEBU_s_FuncInfo@@PEAH@Z 0000000180054a14     LIBCMT:trnsctrl.obj
 0004:00000a20       $pdata$_CallSETranslator   0000000180054a20     LIBCMT:trnsctrl.obj
 0004:00000a2c       $pdata$_CreateFrameInfo    0000000180054a2c     LIBCMT:trnsctrl.obj
 0004:00000a38       $pdata$_FindAndUnlinkFrame 0000000180054a38     LIBCMT:trnsctrl.obj
 0004:00000a44       $pdata$_GetImageBase       0000000180054a44     LIBCMT:trnsctrl.obj
 0004:00000a50       $pdata$_GetThrowImageBase  0000000180054a50     LIBCMT:trnsctrl.obj
 0004:00000a5c       $pdata$_IsExceptionObjectToBeDestroyed 0000000180054a5c     LIBCMT:trnsctrl.obj
 0004:00000a68       $pdata$_SetImageBase       0000000180054a68     LIBCMT:trnsctrl.obj
 0004:00000a74       $pdata$_SetThrowImageBase  0000000180054a74     LIBCMT:trnsctrl.obj
 0004:00000a80       $pdata$_UnwindNestedFrames 0000000180054a80     LIBCMT:trnsctrl.obj
 0004:00000a8c       $pdata$__CxxFrameHandler3  0000000180054a8c     LIBCMT:trnsctrl.obj
 0004:00000a98       $pdata$??0exception@std@@QEAA@AEBQEBD@Z 0000000180054a98     LIBCMT:stdexcpt.obj
 0004:00000aa4       $pdata$??0exception@std@@QEAA@AEBV01@@Z 0000000180054aa4     LIBCMT:stdexcpt.obj
 0004:00000ab0       $pdata$??4exception@std@@QEAAAEAV01@AEBV01@@Z 0000000180054ab0     LIBCMT:stdexcpt.obj
 0004:00000abc       $pdata$??_Gexception@std@@UEAAPEAXI@Z 0000000180054abc     LIBCMT:stdexcpt.obj
 0004:00000ac8       $pdata$?_Copy_str@exception@std@@AEAAXPEBD@Z 0000000180054ac8     LIBCMT:stdexcpt.obj
 0004:00000ad4       $pdata$?_Tidy@exception@std@@AEAAXXZ 0000000180054ad4     LIBCMT:stdexcpt.obj
 0004:00000ae0       $pdata$__raise_securityfailure 0000000180054ae0     LIBCMT:gs_report.obj
 0004:00000aec       $pdata$__report_gsfailure  0000000180054aec     LIBCMT:gs_report.obj
 0004:00000af8       $pdata$__isa_available_init 0000000180054af8     LIBCMT:cpu_disp.obj
 0004:00000b04       $pdata$?_inconsistency@@YAXXZ 0000000180054b04     LIBCMT:hooks.obj
 0004:00000b10       $pdata$?terminate@@YAXXZ   0000000180054b10     LIBCMT:hooks.obj
 0004:00000b1c       $pdata$_initp_eh_hooks     0000000180054b1c     LIBCMT:hooks.obj
 0004:00000b28       $pdata$__C_specific_handler 0000000180054b28     LIBCMT:chandler.obj
 0004:00000b34       $pdata$__copy_path_to_wide_string 0000000180054b34     LIBCMT:crt0dat.obj
 0004:00000b40       $pdata$__crtCorExitProcess 0000000180054b40     LIBCMT:crt0dat.obj
 0004:00000b4c       $pdata$__crtExitProcess    0000000180054b4c     LIBCMT:crt0dat.obj
 0004:00000b58       $pdata$__freeCrtMemory     0000000180054b58     LIBCMT:crt0dat.obj
 0004:00000b64       $pdata$_amsg_exit          0000000180054b64     LIBCMT:crt0dat.obj
 0004:00000b70       $pdata$_cinit              0000000180054b70     LIBCMT:crt0dat.obj
 0004:00000b7c       $pdata$_init_pointers      0000000180054b7c     LIBCMT:crt0dat.obj
 0004:00000b88       $pdata$_initterm           0000000180054b88     LIBCMT:crt0dat.obj
 0004:00000b94       $pdata$_initterm_e         0000000180054b94     LIBCMT:crt0dat.obj
 0004:00000ba0       $pdata$doexit              0000000180054ba0     LIBCMT:crt0dat.obj
 0004:00000bac       $pdata$_msize              0000000180054bac     LIBCMT:msize.obj
 0004:00000bb8       $pdata$_calloc_crt         0000000180054bb8     LIBCMT:crtheap.obj
 0004:00000bc4       $pdata$_malloc_crt         0000000180054bc4     LIBCMT:crtheap.obj
 0004:00000bd0       $pdata$_realloc_crt        0000000180054bd0     LIBCMT:crtheap.obj
 0004:00000bdc       $pdata$_recalloc_crt       0000000180054bdc     LIBCMT:crtheap.obj
 0004:00000be8       $pdata$abort               0000000180054be8     LIBCMT:abort.obj
 0004:00000bf4       $pdata$free                0000000180054bf4     LIBCMT:free.obj
 0004:00000c00       $pdata$_clrfp              0000000180054c00     LIBCMT:fpctrl.obj
 0004:00000c0c       $pdata$_ctrlfp             0000000180054c0c     LIBCMT:fpctrl.obj
 0004:00000c18       $pdata$_set_statfp         0000000180054c18     LIBCMT:fpctrl.obj
 0004:00000c24       $pdata$_statfp             0000000180054c24     LIBCMT:fpctrl.obj
 0004:00000c30       $pdata$_call_matherr       0000000180054c30     LIBCMT:libm_error.obj
 0004:00000c3c       $pdata$_exception_enabled  0000000180054c3c     LIBCMT:libm_error.obj
 0004:00000c48       $pdata$_handle_error       0000000180054c48     LIBCMT:libm_error.obj
 0004:00000c54       $pdata$_handle_errorf      0000000180054c54     LIBCMT:libm_error.obj
 0004:00000c60       $pdata$malloc              0000000180054c60     LIBCMT:malloc.obj
 0004:00000c6c       $pdata$_callnewh           0000000180054c6c     LIBCMT:handler.obj
 0004:00000c78       $pdata$_call_reportfault   0000000180054c78     LIBCMT:invarg.obj
 0004:00000c84       $pdata$_invalid_parameter  0000000180054c84     LIBCMT:invarg.obj
 0004:00000c90       $pdata$_invalid_parameter_noinfo 0000000180054c90     LIBCMT:invarg.obj
 0004:00000c9c       $pdata$_invoke_watson      0000000180054c9c     LIBCMT:invarg.obj
 0004:00000ca8       $pdata$_flsbuf             0000000180054ca8     LIBCMT:_flsbuf.obj
 0004:00000cb4       $pdata$_output_l           0000000180054cb4     LIBCMT:output.obj
 0004:00000cc0       $pdata$write_char          0000000180054cc0     LIBCMT:output.obj
 0004:00000cc0       $pdata$write_char          0000000180054cc0     LIBCMT:output.obj
 0004:00000ccc       $pdata$write_multi_char    0000000180054ccc     LIBCMT:output.obj
 0004:00000ccc       $pdata$write_multi_char    0000000180054ccc     LIBCMT:output.obj
 0004:00000cd8       $pdata$write_string        0000000180054cd8     LIBCMT:output.obj
 0004:00000cd8       $pdata$write_string        0000000180054cd8     LIBCMT:output.obj
 0004:00000ce4       $pdata$_output_s_l         0000000180054ce4     LIBCMT:outputs.obj
 0004:00000cf0       $pdata$__doserrno          0000000180054cf0     LIBCMT:dosmap.obj
 0004:00000cfc       $pdata$_dosmaperr          0000000180054cfc     LIBCMT:dosmap.obj
 0004:00000d08       $pdata$_errno              0000000180054d08     LIBCMT:dosmap.obj
 0004:00000d20       $pdata$_fcloseall          0000000180054d20     LIBCMT:closeall.obj
 0004:00000d2c       $pdata$_fflush_nolock      0000000180054d2c     LIBCMT:fflush.obj
 0004:00000d38       $pdata$_flush              0000000180054d38     LIBCMT:fflush.obj
 0004:00000d44       $pdata$fflush              0000000180054d44     LIBCMT:fflush.obj
 0004:00000d50       $pdata$flsall              0000000180054d50     LIBCMT:fflush.obj
 0004:00000d5c       $pdata$_lock               0000000180054d5c     LIBCMT:mlock.obj
 0004:00000d68       $pdata$_mtdeletelocks      0000000180054d68     LIBCMT:mlock.obj
 0004:00000d74       $pdata$_mtinitlocknum      0000000180054d74     LIBCMT:mlock.obj
 0004:00000d80       $pdata$_mtinitlocks        0000000180054d80     LIBCMT:mlock.obj
 0004:00000d8c       $pdata$_wremove            0000000180054d8c     LIBCMT:wunlink.obj
 0004:00000d98       $pdata$memcpy_s            0000000180054d98     LIBCMT:memcpy_s.obj
 0004:00000da4       $pdata$wcscat_s            0000000180054da4     LIBCMT:wcscat_s.obj
 0004:00000db0       $pdata$wcscpy_s            0000000180054db0     LIBCMT:wcscpy_s.obj
 0004:00000dbc       $pdata$wcsncat_s           0000000180054dbc     LIBCMT:wcsncat_s.obj
 0004:00000dc8       $pdata$_set_error_mode     0000000180054dc8     LIBCMT:errmode.obj
 0004:00000dd4       $pdata$_itow_s             0000000180054dd4     LIBCMT:xtows.obj
 0004:00000de0       $pdata$xtow_s              0000000180054de0     LIBCMT:xtows.obj
 0004:00000dec       $pdata$setvbuf             0000000180054dec     LIBCMT:setvbuf.obj
 0004:00000df8       $pdata$fwprintf            0000000180054df8     LIBCMT:fwprintf.obj
 0004:00000e04       $pdata$_vswprintf_c_l      0000000180054e04     LIBCMT:vswprnc.obj
 0004:00000e10       $pdata$_vswprintf_helper   0000000180054e10     LIBCMT:vswprnc.obj
 0004:00000e1c       $pdata$raise               0000000180054e1c     LIBCMT:winsig.obj
 0004:00000e28       $pdata$__crtMessageBoxW    0000000180054e28     LIBCMT:crtmboxw.obj
 0004:00000e34       $pdata$__GSHandlerCheck    0000000180054e34     LIBCMT:gshandler.obj
 0004:00000e40       $pdata$__GSHandlerCheckCommon 0000000180054e40     LIBCMT:gshandler.obj
 0004:00000e4c       $pdata$_FF_MSGBANNER       0000000180054e4c     LIBCMT:crt0msg.obj
 0004:00000e58       $pdata$_NMSG_WRITE         0000000180054e58     LIBCMT:crt0msg.obj
 0004:00000e64       $pdata$_getstream          0000000180054e64     LIBCMT:stream.obj
 0004:00000e70       $pdata$_openfile           0000000180054e70     LIBCMT:_open.obj
 0004:00000eac       $pdata$_fileno             0000000180054eac     LIBCMT:fileno.obj
 0004:00000eb8       $pdata$_ftbuf              0000000180054eb8     LIBCMT:_sftbuf.obj
 0004:00000ec4       $pdata$_stbuf              0000000180054ec4     LIBCMT:_sftbuf.obj
 0004:00000ed0       $pdata$_ioinit             0000000180054ed0     LIBCMT:ioinit.obj
 0004:00000edc       $pdata$_ioterm             0000000180054edc     LIBCMT:ioinit.obj
 0004:00000ee8       $pdata$_freefls            0000000180054ee8     LIBCMT:tidtable.obj
 0004:00000ef4       $pdata$_freeptd            0000000180054ef4     LIBCMT:tidtable.obj
 0004:00000f00       $pdata$_getptd             0000000180054f00     LIBCMT:tidtable.obj
 0004:00000f0c       $pdata$_getptd_noexit      0000000180054f0c     LIBCMT:tidtable.obj
 0004:00000f18       $pdata$_initptd            0000000180054f18     LIBCMT:tidtable.obj
 0004:00000f24       $pdata$_mtinit             0000000180054f24     LIBCMT:tidtable.obj
 0004:00000f30       $pdata$_mtterm             0000000180054f30     LIBCMT:tidtable.obj
 0004:00000f3c       $pdata$strcpy_s            0000000180054f3c     LIBCMT:strcpy_s.obj
 0004:00000f48       $pdata$__wtomb_environ     0000000180054f48     LIBCMT:wtombenv.obj
 0004:00000f54       $pdata$_mbsnbicoll_l       0000000180054f54     LIBCMT:mbsnbico.obj
 0004:00000f6c       $pdata$?_Type_info_dtor@type_info@@CAXPEAV1@@Z 0000000180054f6c     LIBCMT:typname.obj
 0004:00000f78       $pdata$_close              0000000180054f78     LIBCMT:close.obj
 0004:00000f84       $pdata$_close_nolock       0000000180054f84     LIBCMT:close.obj
 0004:00000f90       $pdata$_freebuf            0000000180054f90     LIBCMT:_freebuf.obj
 0004:00000f9c       $pdata$__freetlocinfo      0000000180054f9c     LIBCMT:localref.obj
 0004:00000fa8       $pdata$__updatetlocinfo    0000000180054fa8     LIBCMT:localref.obj
 0004:00000fb4       $pdata$_updatetlocinfoEx_nolock 0000000180054fb4     LIBCMT:localref.obj
 0004:00000fc0       $pdata$__initmbctable      0000000180054fc0     LIBCMT:mbctype.obj
 0004:00000fcc       $pdata$?getSystemCP@@YAHH@Z 0000000180054fcc     LIBCMT:mbctype.obj
 0004:00000fd8       $pdata$?setSBCS@@YAXPEAUthreadmbcinfostruct@@@Z 0000000180054fd8     LIBCMT:mbctype.obj
 0004:00000fe4       $pdata$?setSBUpLow@@YAXPEAUthreadmbcinfostruct@@@Z 0000000180054fe4     LIBCMT:mbctype.obj
 0004:00000ff0       $pdata$__updatetmbcinfo    0000000180054ff0     LIBCMT:mbctype.obj
 0004:00000ffc       $pdata$_setmbcp            0000000180054ffc     LIBCMT:mbctype.obj
 0004:00001008       $pdata$_setmbcp_nolock     0000000180055008     LIBCMT:mbctype.obj
 0004:00001014       $pdata$_tolower_l          0000000180055014     LIBCMT:tolower.obj
 0004:00001020       $pdata$_locterm            0000000180055020     LIBCMT:wsetloca.obj
 0004:0000102c       $pdata$_XcptFilter         000000018005502c     LIBCMT:winxfltr.obj
 0004:00001038       $pdata$_heap_init          0000000180055038     LIBCMT:heapinit.obj
 0004:00001044       $pdata$_setargv            0000000180055044     LIBCMT:stdargv.obj
 0004:00001050       $pdata$parse_cmdline       0000000180055050     LIBCMT:stdargv.obj
 0004:0000105c       $pdata$_setenvp            000000018005505c     LIBCMT:stdenvp.obj
 0004:00001068       $pdata$__security_init_cookie 0000000180055068     LIBCMT:gs_support.obj
 0004:00001074       $pdata$__crtGetEnvironmentStringsA 0000000180055074     LIBCMT:a_env.obj
 0004:00001080       $pdata$__crtCaptureCurrentContext 0000000180055080     LIBCMT:winapisupp.obj
 0004:0000108c       $pdata$__crtCapturePreviousContext 000000018005508c     LIBCMT:winapisupp.obj
 0004:00001098       $pdata$__crtInitializeCriticalSectionEx 0000000180055098     LIBCMT:winapisupp.obj
 0004:000010a4       $pdata$__crtIsPackagedApp  00000001800550a4     LIBCMT:winapisupp.obj
 0004:000010b0       $pdata$__crtLoadWinApiPointers 00000001800550b0     LIBCMT:winapisupp.obj
 0004:000010bc       $pdata$__crtTerminateProcess 00000001800550bc     LIBCMT:winapisupp.obj
 0004:000010c8       $pdata$__crtUnhandledException 00000001800550c8     LIBCMT:winapisupp.obj
 0004:000010d4       $pdata$_RTC_Initialize     00000001800550d4     LIBCMT:initsect.obj
 0004:000010e0       $pdata$_RTC_Terminate      00000001800550e0     LIBCMT:initsect.obj
 0004:000010ec       $pdata$__DestructExceptionObject 00000001800550ec     LIBCMT:frame.obj
 0004:000010f8       $pdata$??0bad_exception@std@@QEAA@AEBV01@@Z 00000001800550f8     LIBCMT:frame.obj
 0004:00001104       $pdata$??_Gbad_exception@std@@UEAAPEAXI@Z 0000000180055104     LIBCMT:frame.obj
 0004:00001110       $pdata$?CatchIt@@YAXPEAUEHExceptionRecord@@PEA_KPEAU_CONTEXT@@PEAU_xDISPATCHER_CONTEXT@@PEBU_s_FuncInfo@@PEBU_s_HandlerType@@PEBU_s_CatchableType@@PEBU_s_TryBlockMapEntry@@H1EE@Z 0000000180055110     LIBCMT:frame.obj
 0004:0000111c       $pdata$?FindHandler@@YAXPEAUEHExceptionRecord@@PEA_KPEAU_CONTEXT@@PEAU_xDISPATCHER_CONTEXT@@PEBU_s_FuncInfo@@EH1@Z 000000018005511c     LIBCMT:frame.obj
 0004:00001128       $pdata$?FindHandlerForForeignException@@YAXPEAUEHExceptionRecord@@PEA_KPEAU_CONTEXT@@PEAU_xDISPATCHER_CONTEXT@@PEBU_s_FuncInfo@@HH1@Z 0000000180055128     LIBCMT:frame.obj
 0004:00001134       $pdata$?IsInExceptionSpec@@YAEPEAUEHExceptionRecord@@PEBU_s_ESTypeList@@@Z 0000000180055134     LIBCMT:frame.obj
 0004:00001140       $pdata$__BuildCatchObject  0000000180055140     LIBCMT:frame.obj
 0004:0000114c       $pdata$__BuildCatchObjectHelper 000000018005514c     LIBCMT:frame.obj
 0004:00001158       $pdata$__CxxCallCatchBlock 0000000180055158     LIBCMT:frame.obj
 0004:00001164       $pdata$__FrameUnwindFilter 0000000180055164     LIBCMT:frame.obj
 0004:00001170       $pdata$__FrameUnwindToState 0000000180055170     LIBCMT:frame.obj
 0004:0000117c       $pdata$__InternalCxxFrameHandler 000000018005517c     LIBCMT:frame.obj
 0004:00001188       $pdata$__TypeMatch         0000000180055188     LIBCMT:frame.obj
 0004:00001194       $pdata$?__GetCurrentState@@YAHPEA_KPEAU_xDISPATCHER_CONTEXT@@PEBU_s_FuncInfo@@@Z 0000000180055194     LIBCMT:ehstate.obj
 0004:000011a0       $pdata$?__GetUnwindTryBlock@@YAHPEA_KPEAU_xDISPATCHER_CONTEXT@@PEBU_s_FuncInfo@@@Z 00000001800551a0     LIBCMT:ehstate.obj
 0004:000011ac       $pdata$?__SetUnwindTryBlock@@YAXPEA_KPEAU_xDISPATCHER_CONTEXT@@PEBU_s_FuncInfo@@H@Z 00000001800551ac     LIBCMT:ehstate.obj
 0004:000011b8       $pdata$?__StateFromIp@@YAHPEBU_s_FuncInfo@@PEAU_xDISPATCHER_CONTEXT@@_J@Z 00000001800551b8     LIBCMT:ehstate.obj
 0004:000011c4       $pdata$_cfltcvt            00000001800551c4     LIBCMT:cvt.obj
 0004:000011d0       $pdata$_cfltcvt_l          00000001800551d0     LIBCMT:cvt.obj
 0004:000011dc       $pdata$_cftoa_l            00000001800551dc     LIBCMT:cvt.obj
 0004:000011e8       $pdata$_cftoe2_l           00000001800551e8     LIBCMT:cvt.obj
 0004:000011f4       $pdata$_cftoe_l            00000001800551f4     LIBCMT:cvt.obj
 0004:00001200       $pdata$_cftof2_l           0000000180055200     LIBCMT:cvt.obj
 0004:0000120c       $pdata$_cftof_l            000000018005520c     LIBCMT:cvt.obj
 0004:00001218       $pdata$_cftog_l            0000000180055218     LIBCMT:cvt.obj
 0004:00001224       $pdata$_cropzeros_l        0000000180055224     LIBCMT:cvt.obj
 0004:00001230       $pdata$_fassign_l          0000000180055230     LIBCMT:cvt.obj
 0004:0000123c       $pdata$_forcdecpt_l        000000018005523c     LIBCMT:cvt.obj
 0004:00001248       $pdata$_initp_misc_cfltcvt_tab 0000000180055248     LIBCMT:cmiscdat.obj
 0004:00001254       $pdata$_IsNonwritableInCurrentImage 0000000180055254     LIBCMT:pesect.obj
 0004:00001260       $pdata$realloc             0000000180055260     LIBCMT:realloc.obj
 0004:0000126c       $pdata$_recalloc           000000018005526c     LIBCMT:recalloc.obj
 0004:00001278       $pdata$_calloc_impl        0000000180055278     LIBCMT:calloc_impl.obj
 0004:00001284       $pdata$GetTableIndexFromLocaleName 0000000180055284     LIBCMT:winapinls.obj
 0004:00001290       $pdata$__crtCompareStringEx 0000000180055290     LIBCMT:winapinls.obj
 0004:0000129c       $pdata$__crtDownlevelLocaleNameToLCID 000000018005529c     LIBCMT:winapinls.obj
 0004:000012a8       $pdata$__crtLCMapStringEx  00000001800552a8     LIBCMT:winapinls.obj
 0004:000012c0       $pdata$_raise_exc          00000001800552c0     LIBCMT:fpexcept.obj
 0004:000012cc       $pdata$_raise_exc_ex       00000001800552cc     LIBCMT:fpexcept.obj
 0004:000012d8       $pdata$_raise_excf         00000001800552d8     LIBCMT:fpexcept.obj
 0004:000012e4       $pdata$_set_errno_from_matherr 00000001800552e4     LIBCMT:fpexcept.obj
 0004:000012f0       $pdata$_isatty             00000001800552f0     LIBCMT:isatty.obj
 0004:000012fc       $pdata$_write              00000001800552fc     LIBCMT:write.obj
 0004:00001308       $pdata$_write_nolock       0000000180055308     LIBCMT:write.obj
 0004:00001314       $pdata$_lseeki64           0000000180055314     LIBCMT:lseeki64.obj
 0004:00001320       $pdata$_lseeki64_nolock    0000000180055320     LIBCMT:lseeki64.obj
 0004:0000132c       $pdata$_getbuf             000000018005532c     LIBCMT:_getbuf.obj
 0004:00001338       $pdata$_isleadbyte_l       0000000180055338     LIBCMT:_wctype.obj
 0004:00001344       $pdata$isleadbyte          0000000180055344     LIBCMT:_wctype.obj
 0004:00001350       $pdata$_wctomb_s_l         0000000180055350     LIBCMT:wctomb.obj
 0004:0000135c       $pdata$wctomb_s            000000018005535c     LIBCMT:wctomb.obj
 0004:00001368       $pdata$_commit             0000000180055368     LIBCMT:commit.obj
 0004:00001374       $pdata$_woutput_l          0000000180055374     LIBCMT:woutput.obj
 0004:00001380       $pdata$write_char          0000000180055380     LIBCMT:woutput.obj
 0004:0000138c       $pdata$write_multi_char    000000018005538c     LIBCMT:woutput.obj
 0004:00001398       $pdata$write_string        0000000180055398     LIBCMT:woutput.obj
 0004:000013a4       $pdata$wcsncpy_s           00000001800553a4     LIBCMT:wcsncpy_s.obj
 0004:000013b0       $pdata$_sopen_helper       00000001800553b0     LIBCMT:open.obj
 0004:000013bc       $pdata$_sopen_nolock       00000001800553bc     LIBCMT:open.obj
 0004:000013c8       $pdata$_sopen_s            00000001800553c8     LIBCMT:open.obj
 0004:000013d4       $pdata$_mbsnbcmp_l         00000001800553d4     LIBCMT:mbsnbcmp.obj
 0004:000013e0       $pdata$_mbsnbicmp_l        00000001800553e0     LIBCMT:mbsnbicm.obj
 0004:000013ec       $pdata$__crtsetenv         00000001800553ec     LIBCMT:setenv.obj
 0004:000013f8       $pdata$_strnicoll_l        00000001800553f8     LIBCMT:strnicol.obj
 0004:00001404       $pdata$?__crtCompareStringA_stat@@YAHPEAUlocaleinfo_struct@@PEB_WKPEBDH2HH@Z 0000000180055404     LIBCMT:a_cmp.obj
 0004:00001410       $pdata$__crtCompareStringA 0000000180055410     LIBCMT:a_cmp.obj
 0004:0000141c       $pdata$__lock_fhandle      000000018005541c     LIBCMT:osfinfo.obj
 0004:00001428       $pdata$_alloc_osfhnd       0000000180055428     LIBCMT:osfinfo.obj
 0004:00001434       $pdata$_free_osfhnd        0000000180055434     LIBCMT:osfinfo.obj
 0004:00001440       $pdata$_get_osfhandle      0000000180055440     LIBCMT:osfinfo.obj
 0004:0000144c       $pdata$_set_osfhnd         000000018005544c     LIBCMT:osfinfo.obj
 0004:00001458       $pdata$__free_lconv_mon    0000000180055458     LIBCMT:initmon.obj
 0004:00001464       $pdata$__free_lconv_num    0000000180055464     LIBCMT:initnum.obj
 0004:00001470       $pdata$__free_lc_time      0000000180055470     LIBCMT:inittime.obj
 0004:0000147c       $pdata$?__crtLCMapStringA_stat@@YAHPEAUlocaleinfo_struct@@PEB_WKPEBDHPEADHHH@Z 000000018005547c     LIBCMT:a_map.obj
 0004:00001488       $pdata$__crtLCMapStringA   0000000180055488     LIBCMT:a_map.obj
 0004:00001494       $pdata$?__crtGetStringTypeA_stat@@YAHPEAUlocaleinfo_struct@@KPEBDHPEAGHH@Z 0000000180055494     LIBCMT:a_str.obj
 0004:000014a0       $pdata$__crtGetStringTypeA 00000001800554a0     LIBCMT:a_str.obj
 0004:000014ac       $pdata$_isctype_l          00000001800554ac     LIBCMT:isctype.obj
 0004:000014c4       $pdata$?x_ismbbtype_l@@YAHPEAUlocaleinfo_struct@@IHH@Z 00000001800554c4     LIBCMT:ismbbyte.obj
 0004:000014dc       $pdata$isdigit             00000001800554dc     LIBCMT:_ctype.obj
 0004:000014e8       $pdata$strrchr             00000001800554e8     LIBCMT:strrchr.obj
 0004:000014f4       $pdata$_fptostr            00000001800554f4     LIBCMT:_fptostr.obj
 0004:00001500       $pdata$__crt_atoflt_l      0000000180055500     LIBCMT:atodbl.obj
 0004:0000150c       $pdata$_atodbl_l           000000018005550c     LIBCMT:atodbl.obj
 0004:00001518       $pdata$__dtold             0000000180055518     LIBCMT:cfout.obj
 0004:00001524       $pdata$_fltout2            0000000180055524     LIBCMT:cfout.obj
 0004:0000153c       $pdata$_mbtowc_l           000000018005553c     LIBCMT:mbtowc.obj
 0004:00001548       $pdata$_putwch_nolock      0000000180055548     LIBCMT:putwch.obj
 0004:00001554       $pdata$_fputwc_nolock      0000000180055554     LIBCMT:fputwc.obj
 0004:00001560       $pdata$__createFile        0000000180055560     LIBCMT:wopen.obj
 0004:0000156c       $pdata$_wsopen_nolock      000000018005556c     LIBCMT:wopen.obj
 0004:00001584       $pdata$_strnicmp           0000000180055584     LIBCMT:strnicmp.obj
 0004:00001590       $pdata$_strnicmp_l         0000000180055590     LIBCMT:strnicmp.obj
 0004:0000159c       $pdata$_strdup             000000018005559c     LIBCMT:strdup.obj
 0004:000015a8       $pdata$_mbschr_l           00000001800555a8     LIBCMT:mbschr.obj
 0004:000015b4       $pdata$_ld12tod            00000001800555b4     LIBCMT:intrncvt.obj
 0004:000015c0       $pdata$_ld12tof            00000001800555c0     LIBCMT:intrncvt.obj
 0004:000015cc       $pdata$__strgtold12_l      00000001800555cc     LIBCMT:strgtold.obj
 0004:000015d8       $pdata$$I10_OUTPUT         00000001800555d8     LIBCMT:x10fout.obj
 0004:000015e4       $pdata$__termconout        00000001800555e4     LIBCMT:initcon.obj
 0004:000015f0       $pdata$__initconout        00000001800555f0     LIBCMT:initcon.obj
 0004:000015fc       $pdata$_flswbuf            00000001800555fc     LIBCMT:_flswbuf.obj
 0004:00001608       $pdata$_chsize_nolock      0000000180055608     LIBCMT:chsize.obj
 0004:00001614       $pdata$_read_nolock        0000000180055614     LIBCMT:read.obj
 0004:00001620       $pdata$_get_fmode          0000000180055620     LIBCMT:setmode.obj
 0004:0000162c       $pdata$_setmode_nolock     000000018005562c     LIBCMT:setmode.obj
 0004:00001638       $pdata$strchr              0000000180055638     LIBCMT:strchr.obj
 0004:00001644       $pdata$__mtold12           0000000180055644     LIBCMT:mantold.obj
 0004:00001650       $pdata$__delayLoadHelper2  0000000180055650     DelayImp:delayhlp.obj
 0004:0000165c       $pdata$__GSHandlerCheck_EH 000000018005565c     LIBCMT:gshandlereh.obj
 0004:0000168c       $pdata$floor               000000018005568c     LIBCMT:floor.obj
 0004:000016bc       $pdata$__fma3_lib_init     00000001800556bc     LIBCMT:fma3_available.obj
 0004:000016f8       $pdata$_sincos_special     00000001800556f8     LIBCMT:sincos_special.obj
 0004:00001704       $pdata$_sincosf_special    0000000180055704     LIBCMT:sincos_special.obj
 0004:0000171c       $pdata$_expf_special       000000018005571c     LIBCMT:exp_special.obj
 0004:00001728       $pdata$_powf_special       0000000180055728     LIBCMT:pow_special.obj
 0004:00001740       $pdata$?dtor$0@?0??strbuffersize@cimg@cimg_library@@YAPEBDK@Z@4HA 0000000180055740     image.obj
 0004:0000174c       $pdata$?catch$0@?0???0?$CImg@D@cimg_library@@QEAA@IIII@Z@4HA 000000018005574c     image.obj
 0004:00001758       $pdata$?catch$0@?0??assign@?$CImg@D@cimg_library@@QEAAAEAU12@IIII@Z@4HA 0000000180055758     image.obj
 0004:00001764       $pdata$?catch$0@?0???0?$CImg@E@cimg_library@@QEAA@QEBEIIII_N@Z@4HA 0000000180055764     image.obj
 0004:00001770       $pdata$?catch$0@?0???0?$CImg@E@cimg_library@@QEAA@IIII@Z@4HA 0000000180055770     image.obj
 0004:0000177c       $pdata$?catch$0@?0???0?$CImg@E@cimg_library@@QEAA@AEBU01@@Z@4HA 000000018005577c     image.obj
 0004:00001788       $pdata$?catch$0@?0??Execute@ResizeWorker@@UEAAXXZ@4HA 0000000180055788     resize_worker.obj
 0004:00001794       $pdata$?catch$0@?0???0?$CImg@K@cimg_library@@QEAA@IIII@Z@4HA 0000000180055794     resize_worker.obj
 0004:000017a0       $pdata$?dtor$0@?0??get_resize@?$CImg@E@cimg_library@@QEBA?AU12@HHHHHIMMMM@Z@4HA 00000001800557a0     resize_worker.obj
 0004:000017ac       $pdata$?dtor$33@?0??get_resize@?$CImg@E@cimg_library@@QEBA?AU12@HHHHHIMMMM@Z@4HA 00000001800557ac     resize_worker.obj
 0004:000017b8       $pdata$?dtor$34@?0??get_resize@?$CImg@E@cimg_library@@QEBA?AU12@HHHHHIMMMM@Z@4HA 00000001800557b8     resize_worker.obj
 0004:000017c4       $pdata$?dtor$35@?0??get_resize@?$CImg@E@cimg_library@@QEBA?AU12@HHHHHIMMMM@Z@4HA 00000001800557c4     resize_worker.obj
 0004:000017d0       $pdata$?dtor$36@?0??get_resize@?$CImg@E@cimg_library@@QEBA?AU12@HHHHHIMMMM@Z@4HA 00000001800557d0     resize_worker.obj
 0004:000017dc       $pdata$?dtor$37@?0??get_resize@?$CImg@E@cimg_library@@QEBA?AU12@HHHHHIMMMM@Z@4HA 00000001800557dc     resize_worker.obj
 0004:000017e8       $pdata$?dtor$38@?0??get_resize@?$CImg@E@cimg_library@@QEBA?AU12@HHHHHIMMMM@Z@4HA 00000001800557e8     resize_worker.obj
 0004:000017f4       $pdata$?dtor$39@?0??get_resize@?$CImg@E@cimg_library@@QEBA?AU12@HHHHHIMMMM@Z@4HA 00000001800557f4     resize_worker.obj
 0004:00001800       $pdata$?dtor$40@?0??get_resize@?$CImg@E@cimg_library@@QEBA?AU12@HHHHHIMMMM@Z@4HA 0000000180055800     resize_worker.obj
 0004:0000180c       $pdata$?dtor$49@?0??get_resize@?$CImg@E@cimg_library@@QEBA?AU12@HHHHHIMMMM@Z@4HA 000000018005580c     resize_worker.obj
 0004:00001818       $pdata$?dtor$50@?0??get_resize@?$CImg@E@cimg_library@@QEBA?AU12@HHHHHIMMMM@Z@4HA 0000000180055818     resize_worker.obj
 0004:00001824       $pdata$?dtor$51@?0??get_resize@?$CImg@E@cimg_library@@QEBA?AU12@HHHHHIMMMM@Z@4HA 0000000180055824     resize_worker.obj
 0004:00001830       $pdata$?dtor$52@?0??get_resize@?$CImg@E@cimg_library@@QEBA?AU12@HHHHHIMMMM@Z@4HA 0000000180055830     resize_worker.obj
 0004:0000183c       $pdata$?dtor$53@?0??get_resize@?$CImg@E@cimg_library@@QEBA?AU12@HHHHHIMMMM@Z@4HA 000000018005583c     resize_worker.obj
 0004:00001848       $pdata$?dtor$54@?0??get_resize@?$CImg@E@cimg_library@@QEBA?AU12@HHHHHIMMMM@Z@4HA 0000000180055848     resize_worker.obj
 0004:00001854       $pdata$?dtor$55@?0??get_resize@?$CImg@E@cimg_library@@QEBA?AU12@HHHHHIMMMM@Z@4HA 0000000180055854     resize_worker.obj
 0004:00001860       $pdata$?dtor$56@?0??get_resize@?$CImg@E@cimg_library@@QEBA?AU12@HHHHHIMMMM@Z@4HA 0000000180055860     resize_worker.obj
 0004:0000186c       $pdata$?dtor$71@?0??get_resize@?$CImg@E@cimg_library@@QEBA?AU12@HHHHHIMMMM@Z@4HA 000000018005586c     resize_worker.obj
 0004:00001878       $pdata$?dtor$72@?0??get_resize@?$CImg@E@cimg_library@@QEBA?AU12@HHHHHIMMMM@Z@4HA 0000000180055878     resize_worker.obj
 0004:00001884       $pdata$?dtor$73@?0??get_resize@?$CImg@E@cimg_library@@QEBA?AU12@HHHHHIMMMM@Z@4HA 0000000180055884     resize_worker.obj
 0004:00001890       $pdata$?dtor$74@?0??get_resize@?$CImg@E@cimg_library@@QEBA?AU12@HHHHHIMMMM@Z@4HA 0000000180055890     resize_worker.obj
 0004:0000189c       $pdata$?dtor$75@?0??get_resize@?$CImg@E@cimg_library@@QEBA?AU12@HHHHHIMMMM@Z@4HA 000000018005589c     resize_worker.obj
 0004:000018a8       $pdata$?dtor$76@?0??get_resize@?$CImg@E@cimg_library@@QEBA?AU12@HHHHHIMMMM@Z@4HA 00000001800558a8     resize_worker.obj
 0004:000018b4       $pdata$?dtor$77@?0??get_resize@?$CImg@E@cimg_library@@QEBA?AU12@HHHHHIMMMM@Z@4HA 00000001800558b4     resize_worker.obj
 0004:000018c0       $pdata$?dtor$78@?0??get_resize@?$CImg@E@cimg_library@@QEBA?AU12@HHHHHIMMMM@Z@4HA 00000001800558c0     resize_worker.obj
 0004:000018cc       $pdata$?dtor$93@?0??get_resize@?$CImg@E@cimg_library@@QEBA?AU12@HHHHHIMMMM@Z@4HA 00000001800558cc     resize_worker.obj
 0004:000018d8       $pdata$?dtor$94@?0??get_resize@?$CImg@E@cimg_library@@QEBA?AU12@HHHHHIMMMM@Z@4HA 00000001800558d8     resize_worker.obj
 0004:000018e4       $pdata$?dtor$95@?0??get_resize@?$CImg@E@cimg_library@@QEBA?AU12@HHHHHIMMMM@Z@4HA 00000001800558e4     resize_worker.obj
 0004:000018f0       $pdata$?dtor$96@?0??get_resize@?$CImg@E@cimg_library@@QEBA?AU12@HHHHHIMMMM@Z@4HA 00000001800558f0     resize_worker.obj
 0004:000018fc       $pdata$?dtor$97@?0??get_resize@?$CImg@E@cimg_library@@QEBA?AU12@HHHHHIMMMM@Z@4HA 00000001800558fc     resize_worker.obj
 0004:00001908       $pdata$?dtor$98@?0??get_resize@?$CImg@E@cimg_library@@QEBA?AU12@HHHHHIMMMM@Z@4HA 0000000180055908     resize_worker.obj
 0004:00001914       $pdata$?dtor$99@?0??get_resize@?$CImg@E@cimg_library@@QEBA?AU12@HHHHHIMMMM@Z@4HA 0000000180055914     resize_worker.obj
 0004:00001920       $pdata$?dtor$100@?0??get_resize@?$CImg@E@cimg_library@@QEBA?AU12@HHHHHIMMMM@Z@4HA 0000000180055920     resize_worker.obj
 0004:0000192c       $pdata$?catch$0@?0???0?$CImg@M@cimg_library@@QEAA@IIII@Z@4HA 000000018005592c     resize_worker.obj
 0004:00001938       $pdata$?catch$0@?0???0?$CImg@M@cimg_library@@QEAA@IIIIAEBM@Z@4HA 0000000180055938     resize_worker.obj
 0004:00001944       $pdata$?catch$0@?0???0?$CImg@E@cimg_library@@QEAA@IIIIAEBE@Z@4HA 0000000180055944     resize_worker.obj
 0004:00001950       $pdata$?catch$0@?0??assign@?$CImg@E@cimg_library@@QEAAAEAU12@IIII@Z@4HA 0000000180055950     resize_worker.obj
 0004:0000195c       $pdata$?dtor$0@?0??get_crop@?$CImg@E@cimg_library@@QEBA?AU12@HHHHHHHH_N@Z@4HA 000000018005595c     resize_worker.obj
 0004:00001968       $pdata$?catch$0@?0???0?$CImg@I@cimg_library@@QEAA@IIII@Z@4HA 0000000180055968     resize_worker.obj
 0004:00001974       $pdata$?catch$0@?0???0?$CImg@E@cimg_library@@QEAA@AEBU01@_N@Z@4HA 0000000180055974     resize_worker.obj
 0004:00001980       $pdata$?catch$0@?0??assign@?$CImg@E@cimg_library@@QEAAAEAU12@QEBEIIII@Z@4HA 0000000180055980     resize_worker.obj
 0004:0000198c       $pdata$?catch$1@?0??Execute@RotateWorker@@UEAAXXZ@4HA 000000018005598c     rotate_worker.obj
 0004:00001998       $pdata$?catch$0@?0??Execute@RotateWorker@@UEAAXXZ@4HA 0000000180055998     rotate_worker.obj
 0004:000019a4       $pdata$?dtor$0@?0??get_rotate@?$CImg@E@cimg_library@@QEBA?AU12@MII@Z@4HA 00000001800559a4     rotate_worker.obj
 0004:000019b0       $pdata$?catch$0@?0??Execute@CropWorker@@UEAAXXZ@4HA 00000001800559b0     crop_worker.obj
 0004:000019bc       $pdata$?catch$0@?0??Execute@MirrorWorker@@UEAAXXZ@4HA 00000001800559bc     mirror_worker.obj
 0004:000019c8       $pdata$?catch$0@?0??Execute@PadWorker@@UEAAXXZ@4HA 00000001800559c8     pad_worker.obj
 0004:000019d4       $pdata$?catch$0@?0??Execute@SharpenWorker@@UEAAXXZ@4HA 00000001800559d4     sharpen_worker.obj
 0004:000019e0       $pdata$?catch$0@?0??Execute@PasteWorker@@UEAAXXZ@4HA 00000001800559e0     paste_worker.obj
 0004:000019ec       $pdata$_onexit$fin$0       00000001800559ec     LIBCMT:onexit.obj
 0004:000019f8       $pdata$fwprintf$fin$0      00000001800559f8     LIBCMT:fopen.obj
 0004:000019f8       $pdata$_fsopen$fin$0       00000001800559f8     LIBCMT:fopen.obj
 0004:00001a04       $pdata$fprintf$fin$0       0000000180055a04     LIBCMT:fprintf.obj
 0004:00001a10       $pdata$getenv$fin$0        0000000180055a10     LIBCMT:getenv.obj
 0004:00001a1c       $pdata$_CRT_INIT$fin$0     0000000180055a1c     LIBCMT:dllcrt0.obj
 0004:00001a28       $pdata$__DllMainCRTStartup$filt$0 0000000180055a28     LIBCMT:dllcrt0.obj
 0004:00001a34       $pdata$_CallSETranslator$filt$0 0000000180055a34     LIBCMT:trnsctrl.obj
 0004:00001a40       $pdata$doexit$fin$0        0000000180055a40     LIBCMT:crt0dat.obj
 0004:00001a4c       $pdata$_ctrlfp$filt$0      0000000180055a4c     LIBCMT:fpctrl.obj
 0004:00001a58       $pdata$_getstream$fin$0    0000000180055a58     LIBCMT:closeall.obj
 0004:00001a58       $pdata$_fcloseall$fin$0    0000000180055a58     LIBCMT:closeall.obj
 0004:00001a64       $pdata$fflush$fin$0        0000000180055a64     LIBCMT:fflush.obj
 0004:00001a64       $pdata$fclose$fin$0        0000000180055a64     LIBCMT:fflush.obj
 0004:00001a70       $pdata$flsall$fin$0        0000000180055a70     LIBCMT:fflush.obj
 0004:00001a7c       $pdata$flsall$fin$1        0000000180055a7c     LIBCMT:fflush.obj
 0004:00001a88       $pdata$_mtinitlocknum$fin$0 0000000180055a88     LIBCMT:mlock.obj
 0004:00001a94       $pdata$setvbuf$fin$0       0000000180055a94     LIBCMT:setvbuf.obj
 0004:00001aa0       $pdata$raise$fin$0         0000000180055aa0     LIBCMT:winsig.obj
 0004:00001aac       $pdata$_ioinit$fin$0       0000000180055aac     LIBCMT:ioinit.obj
 0004:00001ab8       $pdata$_initptd$fin$1      0000000180055ab8     LIBCMT:tidtable.obj
 0004:00001ab8       $pdata$_freefls$fin$1      0000000180055ab8     LIBCMT:tidtable.obj
 0004:00001ac4       $pdata$_freefls$fin$0      0000000180055ac4     LIBCMT:tidtable.obj
 0004:00001ac4       $pdata$_initptd$fin$0      0000000180055ac4     LIBCMT:tidtable.obj
 0004:00001ad0       $pdata$?fin$0@?0??_Type_info_dtor@type_info@@CAXPEAV1@@Z@4HA 0000000180055ad0     LIBCMT:typname.obj
 0004:00001adc       $pdata$_close$fin$0        0000000180055adc     LIBCMT:close.obj
 0004:00001adc       $pdata$_commit$fin$0       0000000180055adc     LIBCMT:close.obj
 0004:00001ae8       $pdata$_locterm$fin$0      0000000180055ae8     LIBCMT:localref.obj
 0004:00001ae8       $pdata$__updatetlocinfo$fin$0 0000000180055ae8     LIBCMT:localref.obj
 0004:00001af4       $pdata$_setmbcp$fin$0      0000000180055af4     LIBCMT:mbctype.obj
 0004:00001af4       $pdata$__updatetmbcinfo$fin$0 0000000180055af4     LIBCMT:mbctype.obj
 0004:00001b00       $pdata$__CxxCallCatchBlock$filt$0 0000000180055b00     LIBCMT:frame.obj
 0004:00001b0c       $pdata$__CxxCallCatchBlock$fin$1 0000000180055b0c     LIBCMT:frame.obj
 0004:00001b18       $pdata$__DestructExceptionObject$filt$0 0000000180055b18     LIBCMT:frame.obj
 0004:00001b24       $pdata$__FrameUnwindToState$filt$0 0000000180055b24     LIBCMT:frame.obj
 0004:00001b30       $pdata$__FrameUnwindToState$fin$1 0000000180055b30     LIBCMT:frame.obj
 0004:00001b3c       $pdata$_IsNonwritableInCurrentImage$filt$0 0000000180055b3c     LIBCMT:pesect.obj
 0004:00001b48       $pdata$_write$fin$0        0000000180055b48     LIBCMT:write.obj
 0004:00001b48       $pdata$_lseeki64$fin$0     0000000180055b48     LIBCMT:write.obj
 0004:00001b54       $pdata$_sopen_helper$fin$0 0000000180055b54     LIBCMT:open.obj
 0004:00001b60       $pdata$__lock_fhandle$fin$0 0000000180055b60     LIBCMT:osfinfo.obj
 0004:00001b6c       $pdata$_alloc_osfhnd$fin$0 0000000180055b6c     LIBCMT:osfinfo.obj
 0004:00001b78       $pdata$_alloc_osfhnd$fin$1 0000000180055b78     LIBCMT:osfinfo.obj
 0005:00000060       $R000000                   0000000180056060     * linker generated manifest res *

 Exports

  ordinal    name

        1    _register_lwip_image_
